(dp1
S'output'
p2
S"<class 'sqlite3.OperationalError'> table auth_membership_archive_archive_archive_archive_archive_archive_archive_archive_archive_archive already exists"
p3
sS'layer'
p4
S'C:\\Users\\Administrator.DATASCIENCEVM\\Dropbox\\______________myDevProjects\\myWebApps\\myWebApps\\web2py\\applications\\CUP\\models\\db.py'
p5
sS'code'
p6
S'# -*- coding: utf-8 -*-\n\n#########################################################################\n## This scaffolding model makes your app work on Google App Engine too\n## File is released under public domain and you can use without limitations\n#########################################################################\n\n## if SSL/HTTPS is properly configured and you want all HTTP requests to\n## be redirected to HTTPS, uncomment the line below:\n# request.requires_https()\n\n## app configuration made easy. Look inside private/appconfig.ini\nfrom gluon.contrib.appconfig import AppConfig\n## once in production, remove reload=True to gain full speed\nmyconf = AppConfig(reload=True)\n\n\nif not request.env.web2py_runtime_gae:\n    ## if NOT running on Google App Engine use SQLite or other DB\n    db = DAL(myconf.take(\'db.uri\'), pool_size=myconf.take(\'db.pool_size\', cast=int), check_reserved=[\'all\']) #qui potrei mettere migrate=False\nelse:\n    ## connect to Google BigTable (optional \'google:datastore://namespace\')\n    db = DAL(\'google:datastore+ndb\')\n    ## store sessions and tickets there\n    session.connect(request, response, db=db)\n    ## or store session in Memcache, Redis, etc.\n    ## from gluon.contrib.memdb import MEMDB\n    ## from google.appengine.api.memcache import Client\n    ## session.connect(request, response, db = MEMDB(Client()))\n\n## by default give a view/generic.extension to all actions from localhost\n## none otherwise. a pattern can be \'controller/function.extension\'\nresponse.generic_patterns = [\'*\'] if request.is_local else []\n## choose a style for forms\nresponse.formstyle = myconf.take(\'forms.formstyle\')  # or \'bootstrap3_stacked\' or \'bootstrap2\' or other\nresponse.form_label_separator = myconf.take(\'forms.separator\')\n\n\n## (optional) optimize handling of static files\n# response.optimize_css = \'concat,minify,inline\'\n# response.optimize_js = \'concat,minify,inline\'\n## (optional) static assets folder versioning\n# response.static_version = \'0.0.0\'\n#########################################################################\n## Here is sample code if you need for\n## - email capabilities\n## - authentication (registration, login, logout, ... )\n## - authorization (role based authorization)\n## - services (xml, csv, json, xmlrpc, jsonrpc, amf, rss)\n## - old style crud actions\n## (more options discussed in gluon/tools.py)\n#########################################################################\n\nfrom gluon.tools import Auth, Service, PluginManager\n\nservice = Service()\nplugins = PluginManager()\n\nauth = Auth(db)\n\n# campi comuni a tutte le tabelle\nimport uuid\nField_uuid = Field(\'uuid\', length=64, default=lambda:str(uuid.uuid4()))\nFields_signature = auth.signature\n\n\n#tablenames =\'\'\'\n#    auth_cas\n#    auth_event\n#    auth_group\n#    auth_membership\n#    auth_permission\n#    auth_user\n#\'\'\'.split()\n\n## campi aggiuntivi si definiscono dopo auth = Auth(db)\n#for tablename in tablenames:\n#    auth.settings.extra_fields[tablename]=[Field_uuid]\n\n## e prima di auth.define_tables(...)\n\n## create all tables needed by auth if not custom tables\nauth.define_tables(username=False, signature=True)\n\n## configure email\nmail = auth.settings.mailer\nmail.settings.server = \'logging\' if request.is_local else myconf.take(\'smtp.server\')\nmail.settings.sender = myconf.take(\'smtp.sender\')\nmail.settings.login = myconf.take(\'smtp.login\')\n\n## configure auth policy\nauth.settings.registration_requires_verification = False\nauth.settings.registration_requires_approval = False\nauth.settings.reset_password_requires_verification = True\n\n#########################################################################\n## Define your tables below (or better in another model file) for example\n##\n## >>> db.define_table(\'mytable\',Field(\'myfield\',\'string\'))\n##\n## Fields can be \'string\',\'text\',\'password\',\'integer\',\'double\',\'boolean\'\n##       \'date\',\'time\',\'datetime\',\'blob\',\'upload\', \'reference TABLENAME\'\n## There is an implicit \'id integer autoincrement\' field\n## Consult manual for more options, validators, etc.\n##\n## More API examples for controllers:\n##\n## >>> db.mytable.insert(myfield=\'value\')\n## >>> rows=db(db.mytable.myfield==\'value\').select(db.mytable.ALL)\n## >>> for row in rows: print row.id, row.myfield\n#########################################################################\n\n# My application DB\n# WARNING: notnull=True, default=\'NULL\' is a contradition and generates a strange error after some lines !!!!\n# The following source code was generated by SQLDesigner and reordered to avoid missing reference (eg. Servizio must come before Categoria_servizio which refers to it)\n\n\n#mie variabili\nvaloreNonDefinito=None\nmostraCodiceNome=\' %(codice)s %(nome)s\'\n\n#schema DB creato a partire da (ma non identico a) schema ER del 16/03/2016\n\n#db._common_fields.append(Fields_signature) #anche se questa riga viene prima i campi vengono appesi dopo quelli definiti dopo\n#db._common_fields.append(Field_uuid) \n\n#tabelle e relazioni\ndb.define_table("Categoria_servizio",\n#   Field_uuid,\n#    Fields_signature,\n    Field("codice", "string", default=valoreNonDefinito,length=3),\n    Field("nome", "string", default=valoreNonDefinito))#,\n    #migrate=False)\n\ndb.define_table("Stato_prestazione",\n#   Field_uuid,\n#    Fields_signature,\n    Field("codice", "string", notnull=True, default=valoreNonDefinito, length=3),\n    Field("nome", "string", default=valoreNonDefinito))\n\n#db.define_table("Comune")\n#if db(db.Comune.id>0).isempty():\n#    db.Comune.import_from_csv_file(open(\'Comune.csv\',\'r\'))\ndb.auth_user\nAgente = db.Table(db,"Agente",\n#    Field_uuid,\n#    Fields_signature,\n    Field("id_auth_user", "reference auth_user"),\n    Field("codice", "string", default=valoreNonDefinito),\n    Field("nome", "string", default=valoreNonDefinito),\n    Field("cap", "string", default=\'00000\', length=5),\n    Field("via", "string", default=valoreNonDefinito),\n#    Field("id_Comune", "reference Comune"),\n    Field("descrizione", "text", default=valoreNonDefinito))\nAgente.id_auth_user.requires=IS_IN_DB( db, \'auth_user.id\', \' %(first_name)s %(last_name)s (%(email)s)\') \n#Agente.id_auth_user.requires=IS_IN_DB( db, \'comune.id\', \' %(Denominazione in italiano)s %(auth_user.name)s\') \n\ndb.define_table("Cliente", \n    Agente)\ndb.define_table("Fornitore", \n    Agente)\n\n#il codice precedente \xc3\xa8 equivalente a \n#db.define_table("Cliente",\n#    Field("id_auth_user", "reference auth_user"),\n#    Field("codice", "string", default=valoreNonDefinito),\n#    Field("nome", "string", default=None),\n#    Field("cap", "string", default=\'00000\', length=5),\n#    Field("via", "string", default=None),\n#    Field("descrizione", "text", default=None))\n#db.define_table("Fornitore",\n#    Field("id_auth_user", "reference auth_user"),\n#    Field("codice", "string", default=valoreNonDefinito),\n#    Field("nome", "string", default=None),\n#    Field("cap", "string", default=\'00000\', length=5),\n#    Field("via", "string", default=None),\n#    Field("descrizione", "text", default=None))\n#db.Cliente.id_auth_user.requires=IS_IN_DB( db, \'auth_user.id\', \'\')\n#db.Fornitore.id_auth_user.requires=IS_IN_DB( db, \'auth_user.id\', \'\')\n\ndb.define_table("Servizio",\n#   Field_uuid,\n#    Fields_signature,\n    Field("id_Categoria_servizio", "reference Categoria_servizio"),\n    Field("codice", "string", default=valoreNonDefinito),\n    Field("nome", "string", default=valoreNonDefinito),\n    Field("descrizione", "text", default=valoreNonDefinito),\n    Field("prezzo_SSR", "integer", default=valoreNonDefinito),\n    Field("ticket_SSR", "double", default=valoreNonDefinito))\ndb.Servizio.id_Categoria_servizio.requires=IS_IN_DB( db, \'Categoria_servizio.id\', mostraCodiceNome)\n\ndb.define_table("Prestazione",\n#    Field_uuid,\n#    Fields_signature,\n    Field("id_Servizio", "reference Servizio"),\n    Field("id_Fornitore", "reference Fornitore"),\n    Field("id_Cliente", "reference Cliente"),\n    Field("id_Stato_prestazione", "reference Stato_prestazione"),\n    Field("messaggio_utente", "text", default=valoreNonDefinito),\n    Field("messaggio_studio", "text", default=valoreNonDefinito),\n    Field("servizio_richiesto_disponibile", "boolean", default=valoreNonDefinito),\n    Field("giorno", "date", default=valoreNonDefinito),\n    Field("ora", "time", default=valoreNonDefinito),\n    Field("prezzo", "double", default=valoreNonDefinito))\ndb.Prestazione.id_Servizio.requires=IS_IN_DB( db, \'Servizio.id\', mostraCodiceNome)\ndb.Prestazione.id_Fornitore.requires=IS_IN_DB( db, \'Fornitore.id\', mostraCodiceNome)\ndb.Prestazione.id_Cliente.requires=IS_IN_DB( db, \'Cliente.id\', mostraCodiceNome)\ndb.Prestazione.id_Stato_prestazione.requires=IS_IN_DB( db, \'Stato_prestazione.id\', mostraCodiceNome)\n\ndb.define_table("Servizio_disponibile",\n#   Field_uuid,\n#    Fields_signature,\n    Field("id_Servizio", "reference Servizio"),\n    Field("id_Fornitore", "reference Fornitore"),\n    Field("id_Categoria_servizio", "reference Categoria_servizio"),\n    Field("Lunedi_mattina", "boolean", default=valoreNonDefinito),\n    Field("Lunedi_pomeriggio", "boolean", default=valoreNonDefinito),\n    Field("Martedi_mattina", "boolean", default=valoreNonDefinito),\n    Field("Martedi_pomeriggio", "boolean", default=valoreNonDefinito),\n    Field("Mercoledi_mattina", "boolean", default=valoreNonDefinito),\n    Field("Mercoledi_pomeriggio", "boolean", default=valoreNonDefinito),\n    Field("Giovedi_mattina", "boolean", default=valoreNonDefinito),\n    Field("Giovedi_pomeriggio", "boolean", default=valoreNonDefinito),\n    Field("Venerdi_mattina", "boolean", default=valoreNonDefinito),\n    Field("Venerdi_pomeriggio", "boolean", default=valoreNonDefinito),\n    Field("Sabato_mattina", "boolean", default=valoreNonDefinito),\n    Field("Sabato_pomeriggio", "boolean", default=valoreNonDefinito),\n    Field("Domenica_mattina", "boolean", default=valoreNonDefinito),\n    Field("Domenica_pomeriggio", "boolean", default=valoreNonDefinito),\n    Field("prezzo_listino", "double", default=valoreNonDefinito),\n    Field("prezzo_medio", "integer", default=valoreNonDefinito))\ndb.Servizio_disponibile.id_Servizio.requires=IS_IN_DB( db, \'Servizio.id\', mostraCodiceNome)\ndb.Servizio_disponibile.id_Fornitore.requires=IS_IN_DB( db, \'Fornitore.id\', mostraCodiceNome)\ndb.Servizio_disponibile.id_Categoria_servizio.requires=IS_IN_DB( db, \'Categoria_servizio.id\', mostraCodiceNome)\n\ndb.define_table("Soddisfazione",\n#   Field_uuid,\n#    Fields_signature,\n    Field("punteggio_cliente", "integer", default=valoreNonDefinito),\n    Field("commento_cliente", "text", default=valoreNonDefinito),\n    Field("commento_fornitore", "text", default=valoreNonDefinito),\n    Field("commento_cliente_pubblicato", "text", default=valoreNonDefinito),\n    Field("commento_fornitore_pubblicato", "text", default=valoreNonDefinito),\n    Field("id_Fornitore", "reference Fornitore"),\n    Field("id_Cliente", "reference Cliente"),\n    Field("pubblicato", "boolean", default=valoreNonDefinito))\ndb.Soddisfazione.id_Fornitore.requires=IS_IN_DB( db, \'Fornitore.id\', mostraCodiceNome)\ndb.Soddisfazione.id_Cliente.requires=IS_IN_DB( db, \'Cliente.id\', mostraCodiceNome)\n\n""" Relations between tables (remove fields you don\'t need from requires) """\n#db.Agente.id_auth_user.requires=IS_IN_DB( db, \'auth_user.id\', \'\') \n# equivalente a \n#db.Cliente.id_auth_user.requires=IS_IN_DB( db, \'auth_user.id\', \'\')\n#db.Fornitore.id_auth_user.requires=IS_IN_DB( db, \'auth_user.id\', \'\')\n#db.Servizio.id_Categoria_servizio.requires=IS_IN_DB( db, \'Categoria_servizio.id\', \' %(codice)s\')\n#db.Prestazione.id_Servizio.requires=IS_IN_DB( db, \'Servizio.id\', \' %(id_Categoria_servizio)s %(codice)s %(nome)s %(descrizione)s %(prezzo_SSR)s %(ticket_SSR)s\')\n#db.Prestazione.id_Fornitore.requires=IS_IN_DB( db, \'Fornitore.id\', \' %(id_auth_user)s %(codice)s %(nome)s %(cap)s %(via)s %(descrizione)s\')\n#db.Prestazione.id_Cliente.requires=IS_IN_DB( db, \'Cliente.id\', \' %(id_auth_user)s %(codice)s %(nome)s %(cap)s %(via)s %(descrizione)s\')\n#db.Prestazione.id_Stato_prestazione.requires=IS_IN_DB( db, \'Stato_prestazione.id\', \' %(codice)s\')\n#db.Servizio_disponibile.id_Servizio.requires=IS_IN_DB( db, \'Servizio.id\', \' %(id_Categoria_servizio)s %(codice)s %(nome)s %(descrizione)s %(prezzo_SSR)s %(ticket_SSR)s\')\n#db.Servizio_disponibile.id_Fornitore.requires=IS_IN_DB( db, \'Fornitore.id\', \' %(id_auth_user)s %(codice)s %(nome)s %(cap)s %(via)s %(descrizione)s\')\n#db.Servizio_disponibile.id_Categoria_servizio.requires=IS_IN_DB( db, \'Categoria_servizio.id\', \' %(codice)s\')\n#db.Soddisfazione.id_Fornitore.requires=IS_IN_DB( db, \'Fornitore.id\', \' %(id_auth_user)s %(codice)s %(nome)s %(cap)s %(via)s %(descrizione)s\')\n#db.Soddisfazione.id_Cliente.requires=IS_IN_DB( db, \'Cliente.id\', \' %(id_auth_user)s %(codice)s %(nome)s %(cap)s %(via)s %(descrizione)s\')\n\n#DB basato su schema del 12 marzo 2016\n#db.define_table("Categoria_servizio",\n#    Field("codice", "string", default=None),\n#    Field("codice_numerico", "string", default=None))\n\n#db.define_table("Stato_prestazione",\n#    Field("codice", "string", notnull=True, default=\'Richiesta\'),\n#    Field("codice_numerico", "integer", notnull=True, default=1))\n\n#db.define_table("Previsioni_servizio_disponibile",\n#    Field("link_informazioni", "string", default=None),\n#    Field("prezzo_medio", "double", default=None),\n#    Field("tempo_lista_attesa_medio", "double", default=None),\n#    Field("tempo_attesa_medio", "double", default=None),\n#    Field("tempo_durata_medio", "double", default=None),\n#    Field("tempo_informazione_medio", "double", default=None),\n#    Field("probabilita_efficienza_organizzativa", "double", default=None),\n#    Field("probabilita_efficienza_comunicativa", "double", default=None))\n\n##db.define_table("auth_user",)\n\n#db.define_table("Cliente",\n#    Field("id_auth_user", "reference auth_user"),\n#    Field("codice", "string", default=None),\n#    Field("codice_numerico", "string", default=None),\n#    Field("nome", "string", default=None),\n#    Field("cap", "string", default=None),\n#    Field("via", "string", default=None),\n#    Field("descrizione", "text", default=None),\n#    Field("link_informazioni", "string", default=None))\n\n#db.define_table("Fornitore",\n#    Field("id_auth_user", "reference auth_user"),\n#    Field("codice", "string", default=None),\n#    Field("codice_numerico", "string", default=None),\n#    Field("nome", "string", default=None),\n#    Field("cap", "string", default=None),\n#    Field("via", "string", default=None),\n#    Field("descrizione", "text", default=None),\n#    Field("link_informazioni", "string", default=None))\n\n#db.define_table("Servizio",\n#     Field("id_Categoria_servizio", "reference Categoria_servizio"),\n#     Field("codice", "string", default=None),\n#     Field("codicenumerico", "integer", default=None),\n#     Field("nome", "string", default=None),\n#     Field("descrizione", "text", default=None),\n#     Field("link_informazioni", "string", default=None),\n#     Field("consenso_informato_da_firmare", "boolean", default=None))\n\n#db.define_table("Prestazione",\n#     Field("id_Servizio", "reference Servizio"),\n#     Field("id_Fornitore", "reference Fornitore"),\n#     Field("id_Cliente", "reference Cliente"),\n#     Field("id_Stato_prestazione", "reference Stato_prestazione"),\n#     Field("messaggio_utente", "text", default=None),\n#     Field("messaggio_studio", "text", default=None),\n#     Field("servizio_richiesto_non_disponibile", "boolean", default=None),\n#     Field("servizio_richiesto_con_codice_esenzione", "boolean", default=None),\n#     Field("codice_esenzione", "string", default=None),\n#     Field("giorno", "date", default=None),\n#     Field("ora", "time", default=None),\n#     Field("prezzo_SSR", "double", default=None),\n#     Field("ticket_SSR", "integer", default=None),\n#     Field("prezzo_fornitore", "double", default=None),\n#     Field("IVA", "double", default=None),\n#     Field("prezzo_bolli", "integer", default=None))\n\n#db.define_table("Servizio_disponibile",\n#    Field("id_Servizio", "reference Servizio"),\n#    Field("id_Fornitore", "reference Fornitore"),\n#    Field("id_Categoria_servizio", "reference Categoria_servizio"),\n#    Field("id_Previsioni_servizio_disponibile", "reference Previsioni_servizio_disponibile"),\n#    Field("Lunedi_mattina", "boolean", default=None),\n#    Field("Lunedi_pomeriggio", "boolean", default=None),\n#    Field("Martedi_mattina", "boolean", default=None),\n#    Field("Martedi_pomeriggio", "boolean", default=None),\n#    Field("Mercoledi_mattina", "boolean", default=None),\n#    Field("Mercoledi_pomeriggio", "boolean", default=None),\n#    Field("Giovedi_mattina", "boolean", default=None),\n#    Field("Giovedi_pomeriggio", "boolean", default=None),\n#    Field("Venerdi_mattina", "boolean", default=None),\n#    Field("Venerdi_pomeriggio", "boolean", default=None),\n#    Field("Sabato_mattina", "boolean", default=None),\n#    Field("Sabato_pomeriggio", "boolean", default=None),\n#    Field("Domenica_mattina", "boolean", default=None),\n#    Field("Domenica_pomeriggio", "boolean", default=None),\n#    Field("prezzo_locale", "integer", default=None))\n\n#db.define_table("Performance",\n#    Field("id_Prestazione", "reference Prestazione"),\n#    Field("data_effettiva", "date", default=None),\n#    Field("ora_effettiva", "time", default=None),\n#    Field("prezzo_pagato", "integer", default=None),\n#    Field("tempo_attesa", "double", default=None),\n#    Field("tempo_esecuzione", "double", default=None),\n#    Field("tempo_informazione", "double", default=None),\n#    Field("informazioni_fornite_a_voce", "boolean", default=None),\n#    Field("informazioni_fornite_con_mezzi_di_supporto", "boolean", default=None),\n#    Field("consenso_informato_firmato", "boolean", default=None))\n\n#db.define_table("Soddisfazione",\n#    Field("id_Prestazione", "reference Prestazione"),\n#    Field("punteggio_cliente", "integer", default=None),\n#    Field("commento_cliente", "text", default=None),\n#    Field("commento_fornitore", "text", default=None),\n#    Field("commento_cliente_pubblicato", "text", default=None),\n#    Field("commento_fornitore_pubblicato", "text", default=None))\n\n#db.define_table("Prezzi_SSR",\n#    Field("id_Servizio", "reference Servizio"),\n#    Field("codice_regione", "integer", default=None),\n#    Field("nome_regione", "integer", default=None),\n#    Field("prezzo_al_cliente", "double", default=None),\n#    Field("ticket", "integer", default=None),\n#    Field("prezzo_al_fornitore", "double", default=None),\n#    Field("data_inizio", "date", default=None),\n#    Field("in_vigore", "boolean", default=1),\n#    Field("data_fine", "date", default=None))\n\n#""" Relations between tables (remove fields you don\'t need from requires) """\n#db.Cliente.id_auth_user.requires=IS_IN_DB( db, \'auth_user.id\', \'\')\n#db.Fornitore.id_auth_user.requires=IS_IN_DB( db, \'auth_user.id\', \'\')\n#db.Servizio.id_Categoria_servizio.requires=IS_IN_DB( db, \'Categoria_servizio.id\', \' %(codice)s %(codice_numerico)s\')\n#db.Prestazione.id_Servizio.requires=IS_IN_DB( db, \'Servizio.id\', \' %(id_Categoria_servizio)s %(codice)s %(codice_numerico)s %(nome)s %(descrizione)s %(link_informazioni)s %(consenso_informato_da_firmare)s\')\n#db.Prestazione.id_Fornitore.requires=IS_IN_DB( db, \'Fornitore.id\', \' %(id_auth_user)s %(codice)s %(codice_numerico)s %(nome)s %(cap)s %(via)s %(descrizione)s %(link_informazioni)s\')\n#db.Prestazione.id_Cliente.requires=IS_IN_DB( db, \'Cliente.id\', \' %(id_auth_user)s %(codice)s %(codice_numerico)s %(nome)s %(cap)s %(via)s %(descrizione)s %(link_informazioni)s\')\n#db.Prestazione.id_Stato_prestazione.requires=IS_IN_DB( db, \'Stato_prestazione.id\', \' %(codice)s %(codice_numerico)s\')\n#db.Servizio_disponibile.id_Servizio.requires=IS_IN_DB( db, \'Servizio.id\', \' %(id_Categoria_servizio)s %(codice)s %(codice_numerico)s %(nome)s %(descrizione)s %(link_informazioni)s %(consenso_informato_da_firmare)s\')\n#db.Servizio_disponibile.id_Fornitore.requires=IS_IN_DB( db, \'Fornitore.id\', \' %(id_auth_user)s %(codice)s %(codice_numerico)s %(nome)s %(cap)s %(via)s %(descrizione)s %(link_informazioni)s\')\n#db.Servizio_disponibile.id_Categoria_servizio.requires=IS_IN_DB( db, \'Categoria_servizio.id\', \' %(codice)s %(codice_numerico)s\')\n#db.Servizio_disponibile.id_Previsioni_servizio_disponibile.requires=IS_IN_DB( db, \'Previsioni_servizio_disponibile.id\', \' %(link_informazioni)s %(prezzo_medio)s %(tempo_lista_attesa_medio)s %(tempo_attesa_medio)s %(tempo_durata_medio)s %(tempo_informazione_medio)s %(probabilita_efficienza_organizzativa)s %(probabilita_efficienza_comunicativa)s\')\n#db.Performance.id_Prestazione.requires=IS_IN_DB( db, \'Prestazione.id\', \' %(id_Servizio)s %(id_Fornitore)s %(id_Cliente)s %(id_Stato_prestazione)s %(messaggio_utente)s %(messaggio_studio)s %(servizio_richiesto_non_disponibile)s %(servizio_richiesto_con_codice_esenzione)s %(codice_esenzione)s %(data)s %(ora)s %(prezzo_SSR)s %(ticket_SSR)s %(prezzo_fornitore)s %(IVA)s %(prezzo_bolli)s\')\n#db.Soddisfazione.id_Prestazione.requires=IS_IN_DB( db, \'Prestazione.id\', \' %(id_Servizio)s %(id_Fornitore)s %(id_Cliente)s %(id_Stato_prestazione)s %(messaggio_utente)s %(messaggio_studio)s %(servizio_richiesto_non_disponibile)s %(servizio_richiesto_con_codice_esenzione)s %(codice_esenzione)s %(data)s %(ora)s %(prezzo_SSR)s %(ticket_SSR)s %(prezzo_fornitore)s %(IVA)s %(prezzo_bolli)s\')\n#db.Prezzi_SSR.id_Servizio.requires=IS_IN_DB( db, \'Servizio.id\', \' %(id_Categoria_servizio)s %(codice)s %(codice_numerico)s %(nome)s %(descrizione)s %(link_informazioni)s %(consenso_informato_da_firmare)s\')\n\n\n# end generated source code from SQLDesigner\n## after defining tables, uncomment below to enable auditing\nauth.enable_record_versioning(db)\nfor table in db.tables:\n    db[table]._enable_record_versioning()'
p7
sS'snapshot'
p8
(dp9
S'exception'
p10
(dp11
S'__module__'
p12
S"'sqlite3'"
p13
sS'__getslice__'
p14
S"<method-wrapper '__getslice__' of OperationalError object>"
p15
sS'__str__'
p16
S"<method-wrapper '__str__' of OperationalError object>"
p17
sS'__reduce__'
p18
S'<built-in method __reduce__ of OperationalError object>'
p19
sS'__dict__'
p20
S'{}'
p21
sS'__sizeof__'
p22
S'<built-in method __sizeof__ of OperationalError object>'
p23
sS'__weakref__'
p24
S'None'
p25
sS'__init__'
p26
S"<method-wrapper '__init__' of OperationalError object>"
p27
sS'__setattr__'
p28
S"<method-wrapper '__setattr__' of OperationalError object>"
p29
sS'__reduce_ex__'
p30
S'<built-in method __reduce_ex__ of OperationalError object>'
p31
sS'__new__'
p32
S'<built-in method __new__ of type object>'
p33
sS'__format__'
p34
S'<built-in method __format__ of OperationalError object>'
p35
sS'__class__'
p36
S"<class 'sqlite3.OperationalError'>"
p37
sS'__doc__'
p38
S'None'
p39
sS'__getitem__'
p40
S"<method-wrapper '__getitem__' of OperationalError object>"
p41
sS'__setstate__'
p42
S'<built-in method __setstate__ of OperationalError object>'
p43
sS'__getattribute__'
p44
S"<method-wrapper '__getattribute__' of OperationalError object>"
p45
sS'args'
p46
S"('table auth_membership_archive_archive_archive_ar...ve_archive_archive_archive_archive already exists',)"
p47
sS'__subclasshook__'
p48
S'<built-in method __subclasshook__ of type object>'
p49
sS'__unicode__'
p50
S'<built-in method __unicode__ of OperationalError object>'
p51
sS'__delattr__'
p52
S"<method-wrapper '__delattr__' of OperationalError object>"
p53
sS'__repr__'
p54
S"<method-wrapper '__repr__' of OperationalError object>"
p55
sS'__hash__'
p56
S"<method-wrapper '__hash__' of OperationalError object>"
p57
ssS'evalue'
p58
S'table auth_membership_archive_archive_archive_archive_archive_archive_archive_archive_archive_archive already exists'
p59
sS'request'
p60
cgluon.html
XML_unpickle
p61
(S's\xda`\x00\x00<div><table><tr><td style="font-weight:bold;vertical-align:top;">ajax</td><td style="vertical-align:top;">:</td><td><div>False</div></td></tr><tr><td style="font-weight:bold;vertical-align:top;">application</td><td style="vertical-align:top;">:</td><td><div>CUP</div></td></tr><tr><td style="font-weight:bold;vertical-align:top;">args</td><td style="vertical-align:top;">:</td><td><div><table></table></div></td></tr><tr><td style="font-weight:bold;vertical-align:top;">cid</td><td style="vertical-align:top;">:</td><td><div>None</div></td></tr><tr><td style="font-weight:bold;vertical-align:top;">client</td><td style="vertical-align:top;">:</td><td><div>127.0.0.1</div></td></tr><tr><td style="font-weight:bold;vertical-align:top;">controller</td><td style="vertical-align:top;">:</td><td><div>default</div></td></tr><tr><td style="font-weight:bold;vertical-align:top;">cookies</td><td style="vertical-align:top;">:</td><td><div><table><tr><td style="font-weight:bold;vertical-align:top;">session_id_admin</td><td style="vertical-align:top;">:</td><td><div>127.0.0.1-c9a38db6-fe23-4e83-9622-1c94bcabc5f5<table><tr><td style="font-weight:bold;vertical-align:top;">comment</td><td style="vertical-align:top;">:</td><td><div></div></td></tr><tr><td style="font-weight:bold;vertical-align:top;">domain</td><td style="vertical-align:top;">:</td><td><div></div></td></tr><tr><td style="font-weight:bold;vertical-align:top;">expires</td><td style="vertical-align:top;">:</td><td><div></div></td></tr><tr><td style="font-weight:bold;vertical-align:top;">httponly</td><td style="vertical-align:top;">:</td><td><div></div></td></tr><tr><td style="font-weight:bold;vertical-align:top;">max-age</td><td style="vertical-align:top;">:</td><td><div></div></td></tr><tr><td style="font-weight:bold;vertical-align:top;">path</td><td style="vertical-align:top;">:</td><td><div></div></td></tr><tr><td style="font-weight:bold;vertical-align:top;">secure</td><td style="vertical-align:top;">:</td><td><div></div></td></tr><tr><td style="font-weight:bold;vertical-align:top;">version</td><td style="vertical-align:top;">:</td><td><div></div></td></tr></table></div></td></tr><tr><td style="font-weight:bold;vertical-align:top;">session_id_cup</td><td style="vertical-align:top;">:</td><td><div>127.0.0.1-0cb94dbd-c2c2-4d75-a0a4-acb6aa926f93<table><tr><td style="font-weight:bold;vertical-align:top;">comment</td><td style="vertical-align:top;">:</td><td><div></div></td></tr><tr><td style="font-weight:bold;vertical-align:top;">domain</td><td style="vertical-align:top;">:</td><td><div></div></td></tr><tr><td style="font-weight:bold;vertical-align:top;">expires</td><td style="vertical-align:top;">:</td><td><div></div></td></tr><tr><td style="font-weight:bold;vertical-align:top;">httponly</td><td style="vertical-align:top;">:</td><td><div></div></td></tr><tr><td style="font-weight:bold;vertical-align:top;">max-age</td><td style="vertical-align:top;">:</td><td><div></div></td></tr><tr><td style="font-weight:bold;vertical-align:top;">path</td><td style="vertical-align:top;">:</td><td><div></div></td></tr><tr><td style="font-weight:bold;vertical-align:top;">secure</td><td style="vertical-align:top;">:</td><td><div></div></td></tr><tr><td style="font-weight:bold;vertical-align:top;">version</td><td style="vertical-align:top;">:</td><td><div></div></td></tr></table></div></td></tr><tr><td style="font-weight:bold;vertical-align:top;">session_id_welcome</td><td style="vertical-align:top;">:</td><td><div>127.0.0.1-2388dde2-0933-4780-9938-2a15c05e6b2c<table><tr><td style="font-weight:bold;vertical-align:top;">comment</td><td style="vertical-align:top;">:</td><td><div></div></td></tr><tr><td style="font-weight:bold;vertical-align:top;">domain</td><td style="vertical-align:top;">:</td><td><div></div></td></tr><tr><td style="font-weight:bold;vertical-align:top;">expires</td><td style="vertical-align:top;">:</td><td><div></div></td></tr><tr><td style="font-weight:bold;vertical-align:top;">httponly</td><td style="vertical-align:top;">:</td><td><div></div></td></tr><tr><td style="font-weight:bold;vertical-align:top;">max-age</td><td style="vertical-align:top;">:</td><td><div></div></td></tr><tr><td style="font-weight:bold;vertical-align:top;">path</td><td style="vertical-align:top;">:</td><td><div></div></td></tr><tr><td style="font-weight:bold;vertical-align:top;">secure</td><td style="vertical-align:top;">:</td><td><div></div></td></tr><tr><td style="font-weight:bold;vertical-align:top;">version</td><td style="vertical-align:top;">:</td><td><div></div></td></tr></table></div></td></tr></table></div></td></tr><tr><td style="font-weight:bold;vertical-align:top;">env</td><td style="vertical-align:top;">:</td><td><div><table><tr><td style="font-weight:bold;vertical-align:top;">HTTP_ACCEPT</td><td style="vertical-align:top;">:</td><td><div>text/html, application/xhtml+xml, */*</div></td></tr><tr><td style="font-weight:bold;vertical-align:top;">HTTP_ACCEPT_ENCODING</td><td style="vertical-align:top;">:</td><td><div>gzip, deflate, peerdist</div></td></tr><tr><td style="font-weight:bold;vertical-align:top;">HTTP_ACCEPT_LANGUAGE</td><td style="vertical-align:top;">:</td><td><div>it-IT</div></td></tr><tr><td style="font-weight:bold;vertical-align:top;">HTTP_CONNECTION</td><td style="vertical-align:top;">:</td><td><div>Keep-Alive</div></td></tr><tr><td style="font-weight:bold;vertical-align:top;">HTTP_COOKIE</td><td style="vertical-align:top;">:</td><td><div>session_id_welcome=127.0.0.1-2388dde2-0933-4780-9938-2a15c05e6b2c; session_id_cup=127.0.0.1-0cb94dbd-c2c2-4d75-a0a4-acb6aa926f93; session_id_admin=127.0.0.1-c9a38db6-fe23-4e83-9622-1c94bcabc5f5</div></td></tr><tr><td style="font-weight:bold;vertical-align:top;">HTTP_HOST</td><td style="vertical-align:top;">:</td><td><div>localhost:8080</div></td></tr><tr><td style="font-weight:bold;vertical-align:top;">HTTP_USER_AGENT</td><td style="vertical-align:top;">:</td><td><div>Mozilla/5.0 (Windows NT 6.3; WOW64; Trident/7.0; Touch; rv:11.0) like Gecko</div></td></tr><tr><td style="font-weight:bold;vertical-align:top;">HTTP_X_P2P_PEERDIST</td><td style="vertical-align:top;">:</td><td><div>Version=1.1</div></td></tr><tr><td style="font-weight:bold;vertical-align:top;">HTTP_X_P2P_PEERDISTEX</td><td style="vertical-align:top;">:</td><td><div>MinContentInformation=1.0, MaxContentInformation=2.0</div></td></tr><tr><td style="font-weight:bold;vertical-align:top;">PATH_INFO</td><td style="vertical-align:top;">:</td><td><div>/CUP</div></td></tr><tr><td style="font-weight:bold;vertical-align:top;">QUERY_STRING</td><td style="vertical-align:top;">:</td><td><div></div></td></tr><tr><td style="font-weight:bold;vertical-align:top;">REMOTE_ADDR</td><td style="vertical-align:top;">:</td><td><div>127.0.0.1</div></td></tr><tr><td style="font-weight:bold;vertical-align:top;">REMOTE_PORT</td><td style="vertical-align:top;">:</td><td><div>52709</div></td></tr><tr><td style="font-weight:bold;vertical-align:top;">REQUEST_METHOD</td><td style="vertical-align:top;">:</td><td><div>GET</div></td></tr><tr><td style="font-weight:bold;vertical-align:top;">SCRIPT_NAME</td><td style="vertical-align:top;">:</td><td><div></div></td></tr><tr><td style="font-weight:bold;vertical-align:top;">SERVER_NAME</td><td style="vertical-align:top;">:</td><td><div>DataScienceVM</div></td></tr><tr><td style="font-weight:bold;vertical-align:top;">SERVER_PORT</td><td style="vertical-align:top;">:</td><td><div>8080</div></td></tr><tr><td style="font-weight:bold;vertical-align:top;">SERVER_PROTOCOL</td><td style="vertical-align:top;">:</td><td><div>HTTP/1.1</div></td></tr><tr><td style="font-weight:bold;vertical-align:top;">SERVER_SOFTWARE</td><td style="vertical-align:top;">:</td><td><div>Rocket 1.2.6</div></td></tr><tr><td style="font-weight:bold;vertical-align:top;">app_folders</td><td style="vertical-align:top;">:</td><td><div>set([&#x27;C:\\\\Users\\\\Administrator.DATASCIENCEVM\\\\Dropbox\\\\______________myDevProjects\\\\myWebApps\\\\myWebApps\\\\web2py\\\\applications\\\\admin\\\\&#x27;, &#x27;C:\\\\Users\\\\Administrator.DATASCIENCEVM\\\\Dropbox\\\\______________myDevProjects\\\\myWebApps\\\\myWebApps\\\\web2py\\\\applications\\\\CUP\\\\&#x27;])</div></td></tr><tr><td style="font-weight:bold;vertical-align:top;">applications_parent</td><td style="vertical-align:top;">:</td><td><div>C:\\Users\\Administrator.DATASCIENCEVM\\Dropbox\\______________myDevProjects\\myWebApps\\myWebApps\\web2py</div></td></tr><tr><td style="font-weight:bold;vertical-align:top;">cmd_args</td><td style="vertical-align:top;">:</td><td><div><table></table></div></td></tr><tr><td style="font-weight:bold;vertical-align:top;">cmd_options</td><td style="vertical-align:top;">:</td><td><div>&lt;Values at 0x44b8408: {&#x27;verbose&#x27;: False, &#x27;ip&#x27;: &#x27;localhost&#x27;, &#x27;debuglevel&#x27;: 30, &#x27;with_scheduler&#x27;: False, &#x27;ips&#x27;: [&#x27;192.168.1.100&#x27;, &#x27;2001:0:9d38:6ab8:2c32:e71:fd13:5738&#x27;, &#x27;fe80::244b:ba1:e8b9:363d%12&#x27;, &#x27;fe80::2c32:e71:fd13:5738%15&#x27;], &#x27;shutdown_timeout&#x27;: 5, &#x27;taskbar&#x27;: False, &#x27;with_coverage&#x27;: False, &#x27;scheduler_groups&#x27;: None, &#x27;port&#x27;: 8080, &#x27;maxthreads&#x27;: None, &#x27;softcron&#x27;: False, &#x27;server_name&#x27;: &#x27;DataScienceVM&#x27;, &#x27;bpython&#x27;: False, &#x27;nogui&#x27;: False, &#x27;pid_filename&#x27;: &#x27;httpserver.pid&#x27;, &#x27;print_errors&#x27;: False, &#x27;extcron&#x27;: False, &#x27;runcron&#x27;: False, &#x27;run_system_tests&#x27;: False, &#x27;test&#x27;: None, &#x27;folder&#x27;: &#x27;C:\\\\Users\\\\Administrator.DATASCIENCEVM\\\\Dropbox\\\\______________myDevProjects\\\\myWebApps\\\\myWebApps\\\\web2py&#x27;, &#x27;config&#x27;: &#x27;&#x27;, &#x27;minthreads&#x27;: None, &#x27;shell&#x27;: None, &#x27;run&#x27;: &#x27;&#x27;, &#x27;log_filename&#x27;: &#x27;httpserver.log&#x27;, &#x27;profiler_dir&#x27;: None, &#x27;args&#x27;: [&#x27;&#x27;], &#x27;socket_timeout&#x27;: 5, &#x27;ssl_ca_certificate&#x27;: None, &#x27;scheduler&#x27;: None, &#x27;interfaces&#x27;: None, &#x27;ssl_private_key&#x27;: &#x27;&#x27;, &#x27;gae&#x27;: None, &#x27;password&#x27;: &#x27;1234&#x27;, &#x27;request_queue_size&#x27;: 5, &#x27;ssl_certificate&#x27;: &#x27;&#x27;, &#x27;cronjob&#x27;: False, &#x27;numthreads&#x27;: None, &#x27;quiet&#x27;: False, &#x27;import_models&#x27;: False, &#x27;timeout&#x27;: 10, &#x27;plain&#x27;: False, &#x27;nobanner&#x27;: False}&gt;</div></td></tr><tr><td style="font-weight:bold;vertical-align:top;">db_sessions</td><td style="vertical-align:top;">:</td><td><div>set([])</div></td></tr><tr><td style="font-weight:bold;vertical-align:top;">debugging</td><td style="vertical-align:top;">:</td><td><div>False</div></td></tr><tr><td style="font-weight:bold;vertical-align:top;">gluon_parent</td><td style="vertical-align:top;">:</td><td><div>C:\\Users\\Administrator.DATASCIENCEVM\\Dropbox\\______________myDevProjects\\myWebApps\\myWebApps\\web2py</div></td></tr><tr><td style="font-weight:bold;vertical-align:top;">http_accept</td><td style="vertical-align:top;">:</td><td><div>text/html, application/xhtml+xml, */*</div></td></tr><tr><td style="font-weight:bold;vertical-align:top;">http_accept_encoding</td><td style="vertical-align:top;">:</td><td><div>gzip, deflate, peerdist</div></td></tr><tr><td style="font-weight:bold;vertical-align:top;">http_accept_language</td><td style="vertical-align:top;">:</td><td><div>it-IT</div></td></tr><tr><td style="font-weight:bold;vertical-align:top;">http_connection</td><td style="vertical-align:top;">:</td><td><div>Keep-Alive</div></td></tr><tr><td style="font-weight:bold;vertical-align:top;">http_cookie</td><td style="vertical-align:top;">:</td><td><div>session_id_welcome=127.0.0.1-2388dde2-0933-4780-9938-2a15c05e6b2c; session_id_cup=127.0.0.1-0cb94dbd-c2c2-4d75-a0a4-acb6aa926f93; session_id_admin=127.0.0.1-c9a38db6-fe23-4e83-9622-1c94bcabc5f5</div></td></tr><tr><td style="font-weight:bold;vertical-align:top;">http_host</td><td style="vertical-align:top;">:</td><td><div>localhost:8080</div></td></tr><tr><td style="font-weight:bold;vertical-align:top;">http_user_agent</td><td style="vertical-align:top;">:</td><td><div>Mozilla/5.0 (Windows NT 6.3; WOW64; Trident/7.0; Touch; rv:11.0) like Gecko</div></td></tr><tr><td style="font-weight:bold;vertical-align:top;">http_x_p2p_peerdist</td><td style="vertical-align:top;">:</td><td><div>Version=1.1</div></td></tr><tr><td style="font-weight:bold;vertical-align:top;">http_x_p2p_peerdistex</td><td style="vertical-align:top;">:</td><td><div>MinContentInformation=1.0, MaxContentInformation=2.0</div></td></tr><tr><td style="font-weight:bold;vertical-align:top;">is_jython</td><td style="vertical-align:top;">:</td><td><div>False</div></td></tr><tr><td style="font-weight:bold;vertical-align:top;">is_pypy</td><td style="vertical-align:top;">:</td><td><div>False</div></td></tr><tr><td style="font-weight:bold;vertical-align:top;">is_source</td><td style="vertical-align:top;">:</td><td><div>True</div></td></tr><tr><td style="font-weight:bold;vertical-align:top;">local_hosts</td><td style="vertical-align:top;">:</td><td><div><table><tr><td><div>2001:0:9d38:6ab8:2c32:e71:fd13:5738</div></td></tr><tr><td><div>DataScienceVM.SOS-NHS.local</div></td></tr><tr><td><div>192.168.1.100</div></td></tr><tr><td><div>::ffff:127.0.0.1</div></td></tr><tr><td><div>::1</div></td></tr><tr><td><div>fe80::2c32:e71:fd13:5738%15</div></td></tr><tr><td><div>fe80::244b:ba1:e8b9:363d%12</div></td></tr><tr><td><div>DataScienceVM</div></td></tr><tr><td><div>127.0.0.1</div></td></tr></table></div></td></tr><tr><td style="font-weight:bold;vertical-align:top;">path_info</td><td style="vertical-align:top;">:</td><td><div>/CUP</div></td></tr><tr><td style="font-weight:bold;vertical-align:top;">query_string</td><td style="vertical-align:top;">:</td><td><div></div></td></tr><tr><td style="font-weight:bold;vertical-align:top;">remote_addr</td><td style="vertical-align:top;">:</td><td><div>127.0.0.1</div></td></tr><tr><td style="font-weight:bold;vertical-align:top;">remote_port</td><td style="vertical-align:top;">:</td><td><div>52709</div></td></tr><tr><td style="font-weight:bold;vertical-align:top;">request_method</td><td style="vertical-align:top;">:</td><td><div>GET</div></td></tr><tr><td style="font-weight:bold;vertical-align:top;">request_uri</td><td style="vertical-align:top;">:</td><td><div>/CUP/default/index</div></td></tr><tr><td style="font-weight:bold;vertical-align:top;">script_name</td><td style="vertical-align:top;">:</td><td><div></div></td></tr><tr><td style="font-weight:bold;vertical-align:top;">server_name</td><td style="vertical-align:top;">:</td><td><div>DataScienceVM</div></td></tr><tr><td style="font-weight:bold;vertical-align:top;">server_port</td><td style="vertical-align:top;">:</td><td><div>8080</div></td></tr><tr><td style="font-weight:bold;vertical-align:top;">server_protocol</td><td style="vertical-align:top;">:</td><td><div>HTTP/1.1</div></td></tr><tr><td style="font-weight:bold;vertical-align:top;">server_software</td><td style="vertical-align:top;">:</td><td><div>Rocket 1.2.6</div></td></tr><tr><td style="font-weight:bold;vertical-align:top;">web2py_original_uri</td><td style="vertical-align:top;">:</td><td><div>/CUP</div></td></tr><tr><td style="font-weight:bold;vertical-align:top;">web2py_path</td><td style="vertical-align:top;">:</td><td><div>C:\\Users\\Administrator.DATASCIENCEVM\\Dropbox\\______________myDevProjects\\myWebApps\\myWebApps\\web2py</div></td></tr><tr><td style="font-weight:bold;vertical-align:top;">web2py_version</td><td style="vertical-align:top;">:</td><td><div>2.13.4-stable+timestamp.2015.12.26.04.59.39</div></td></tr><tr><td style="font-weight:bold;vertical-align:top;">wsgi.errors</td><td style="vertical-align:top;">:</td><td><div>&lt;visualstudio_py_debugger._DebuggerOutput object at 0x00000000033E7BA8&gt;</div></td></tr><tr><td style="font-weight:bold;vertical-align:top;">wsgi.file_wrapper</td><td style="vertical-align:top;">:</td><td><div>&lt;class wsgiref.util.FileWrapper at 0x0000000004456A08&gt;</div></td></tr><tr><td style="font-weight:bold;vertical-align:top;">wsgi.input</td><td style="vertical-align:top;">:</td><td><div>&lt;socket._fileobject object at 0x00000000032E7228&gt;</div></td></tr><tr><td style="font-weight:bold;vertical-align:top;">wsgi.multiprocess</td><td style="vertical-align:top;">:</td><td><div>False</div></td></tr><tr><td style="font-weight:bold;vertical-align:top;">wsgi.multithread</td><td style="vertical-align:top;">:</td><td><div>True</div></td></tr><tr><td style="font-weight:bold;vertical-align:top;">wsgi.run_once</td><td style="vertical-align:top;">:</td><td><div>False</div></td></tr><tr><td style="font-weight:bold;vertical-align:top;">wsgi.url_scheme</td><td style="vertical-align:top;">:</td><td><div>http</div></td></tr><tr><td style="font-weight:bold;vertical-align:top;">wsgi.version</td><td style="vertical-align:top;">:</td><td><div><table><tr><td><div>1</div></td></tr><tr><td><div>0</div></td></tr></table></div></td></tr><tr><td style="font-weight:bold;vertical-align:top;">wsgi_errors</td><td style="vertical-align:top;">:</td><td><div>&lt;visualstudio_py_debugger._DebuggerOutput object at 0x00000000033E7BA8&gt;</div></td></tr><tr><td style="font-weight:bold;vertical-align:top;">wsgi_file_wrapper</td><td style="vertical-align:top;">:</td><td><div>&lt;class wsgiref.util.FileWrapper at 0x0000000004456A08&gt;</div></td></tr><tr><td style="font-weight:bold;vertical-align:top;">wsgi_input</td><td style="vertical-align:top;">:</td><td><div>&lt;socket._fileobject object at 0x00000000032E7228&gt;</div></td></tr><tr><td style="font-weight:bold;vertical-align:top;">wsgi_multiprocess</td><td style="vertical-align:top;">:</td><td><div>False</div></td></tr><tr><td style="font-weight:bold;vertical-align:top;">wsgi_multithread</td><td style="vertical-align:top;">:</td><td><div>True</div></td></tr><tr><td style="font-weight:bold;vertical-align:top;">wsgi_run_once</td><td style="vertical-align:top;">:</td><td><div>False</div></td></tr><tr><td style="font-weight:bold;vertical-align:top;">wsgi_url_scheme</td><td style="vertical-align:top;">:</td><td><div>http</div></td></tr><tr><td style="font-weight:bold;vertical-align:top;">wsgi_version</td><td style="vertical-align:top;">:</td><td><div><table><tr><td><div>1</div></td></tr><tr><td><div>0</div></td></tr></table></div></td></tr></table></div></td></tr><tr><td style="font-weight:bold;vertical-align:top;">extension</td><td style="vertical-align:top;">:</td><td><div>html</div></td></tr><tr><td style="font-weight:bold;vertical-align:top;">folder</td><td style="vertical-align:top;">:</td><td><div>C:\\Users\\Administrator.DATASCIENCEVM\\Dropbox\\______________myDevProjects\\myWebApps\\myWebApps\\web2py\\applications\\CUP\\</div></td></tr><tr><td style="font-weight:bold;vertical-align:top;">function</td><td style="vertical-align:top;">:</td><td><div>index</div></td></tr><tr><td style="font-weight:bold;vertical-align:top;">global_settings</td><td style="vertical-align:top;">:</td><td><div><table><tr><td style="font-weight:bold;vertical-align:top;">app_folders</td><td style="vertical-align:top;">:</td><td><div>set([&#x27;C:\\\\Users\\\\Administrator.DATASCIENCEVM\\\\Dropbox\\\\______________myDevProjects\\\\myWebApps\\\\myWebApps\\\\web2py\\\\applications\\\\admin\\\\&#x27;, &#x27;C:\\\\Users\\\\Administrator.DATASCIENCEVM\\\\Dropbox\\\\______________myDevProjects\\\\myWebApps\\\\myWebApps\\\\web2py\\\\applications\\\\CUP\\\\&#x27;])</div></td></tr><tr><td style="font-weight:bold;vertical-align:top;">applications_parent</td><td style="vertical-align:top;">:</td><td><div>C:\\Users\\Administrator.DATASCIENCEVM\\Dropbox\\______________myDevProjects\\myWebApps\\myWebApps\\web2py</div></td></tr><tr><td style="font-weight:bold;vertical-align:top;">cmd_args</td><td style="vertical-align:top;">:</td><td><div><table></table></div></td></tr><tr><td style="font-weight:bold;vertical-align:top;">cmd_options</td><td style="vertical-align:top;">:</td><td><div>&lt;Values at 0x44b8408: {&#x27;verbose&#x27;: False, &#x27;ip&#x27;: &#x27;localhost&#x27;, &#x27;debuglevel&#x27;: 30, &#x27;with_scheduler&#x27;: False, &#x27;ips&#x27;: [&#x27;192.168.1.100&#x27;, &#x27;2001:0:9d38:6ab8:2c32:e71:fd13:5738&#x27;, &#x27;fe80::244b:ba1:e8b9:363d%12&#x27;, &#x27;fe80::2c32:e71:fd13:5738%15&#x27;], &#x27;shutdown_timeout&#x27;: 5, &#x27;taskbar&#x27;: False, &#x27;with_coverage&#x27;: False, &#x27;scheduler_groups&#x27;: None, &#x27;port&#x27;: 8080, &#x27;maxthreads&#x27;: None, &#x27;softcron&#x27;: False, &#x27;server_name&#x27;: &#x27;DataScienceVM&#x27;, &#x27;bpython&#x27;: False, &#x27;nogui&#x27;: False, &#x27;pid_filename&#x27;: &#x27;httpserver.pid&#x27;, &#x27;print_errors&#x27;: False, &#x27;extcron&#x27;: False, &#x27;runcron&#x27;: False, &#x27;run_system_tests&#x27;: False, &#x27;test&#x27;: None, &#x27;folder&#x27;: &#x27;C:\\\\Users\\\\Administrator.DATASCIENCEVM\\\\Dropbox\\\\______________myDevProjects\\\\myWebApps\\\\myWebApps\\\\web2py&#x27;, &#x27;config&#x27;: &#x27;&#x27;, &#x27;minthreads&#x27;: None, &#x27;shell&#x27;: None, &#x27;run&#x27;: &#x27;&#x27;, &#x27;log_filename&#x27;: &#x27;httpserver.log&#x27;, &#x27;profiler_dir&#x27;: None, &#x27;args&#x27;: [&#x27;&#x27;], &#x27;socket_timeout&#x27;: 5, &#x27;ssl_ca_certificate&#x27;: None, &#x27;scheduler&#x27;: None, &#x27;interfaces&#x27;: None, &#x27;ssl_private_key&#x27;: &#x27;&#x27;, &#x27;gae&#x27;: None, &#x27;password&#x27;: &#x27;1234&#x27;, &#x27;request_queue_size&#x27;: 5, &#x27;ssl_certificate&#x27;: &#x27;&#x27;, &#x27;cronjob&#x27;: False, &#x27;numthreads&#x27;: None, &#x27;quiet&#x27;: False, &#x27;import_models&#x27;: False, &#x27;timeout&#x27;: 10, &#x27;plain&#x27;: False, &#x27;nobanner&#x27;: False}&gt;</div></td></tr><tr><td style="font-weight:bold;vertical-align:top;">db_sessions</td><td style="vertical-align:top;">:</td><td><div>set([])</div></td></tr><tr><td style="font-weight:bold;vertical-align:top;">debugging</td><td style="vertical-align:top;">:</td><td><div>False</div></td></tr><tr><td style="font-weight:bold;vertical-align:top;">gluon_parent</td><td style="vertical-align:top;">:</td><td><div>C:\\Users\\Administrator.DATASCIENCEVM\\Dropbox\\______________myDevProjects\\myWebApps\\myWebApps\\web2py</div></td></tr><tr><td style="font-weight:bold;vertical-align:top;">is_jython</td><td style="vertical-align:top;">:</td><td><div>False</div></td></tr><tr><td style="font-weight:bold;vertical-align:top;">is_pypy</td><td style="vertical-align:top;">:</td><td><div>False</div></td></tr><tr><td style="font-weight:bold;vertical-align:top;">is_source</td><td style="vertical-align:top;">:</td><td><div>True</div></td></tr><tr><td style="font-weight:bold;vertical-align:top;">local_hosts</td><td style="vertical-align:top;">:</td><td><div><table><tr><td><div>2001:0:9d38:6ab8:2c32:e71:fd13:5738</div></td></tr><tr><td><div>DataScienceVM.SOS-NHS.local</div></td></tr><tr><td><div>192.168.1.100</div></td></tr><tr><td><div>::ffff:127.0.0.1</div></td></tr><tr><td><div>::1</div></td></tr><tr><td><div>fe80::2c32:e71:fd13:5738%15</div></td></tr><tr><td><div>fe80::244b:ba1:e8b9:363d%12</div></td></tr><tr><td><div>DataScienceVM</div></td></tr><tr><td><div>127.0.0.1</div></td></tr></table></div></td></tr><tr><td style="font-weight:bold;vertical-align:top;">web2py_version</td><td style="vertical-align:top;">:</td><td><div>2.13.4-stable+timestamp.2015.12.26.04.59.39</div></td></tr></table></div></td></tr><tr><td style="font-weight:bold;vertical-align:top;">is_https</td><td style="vertical-align:top;">:</td><td><div>False</div></td></tr><tr><td style="font-weight:bold;vertical-align:top;">is_local</td><td style="vertical-align:top;">:</td><td><div>True</div></td></tr><tr><td style="font-weight:bold;vertical-align:top;">is_restful</td><td style="vertical-align:top;">:</td><td><div>False</div></td></tr><tr><td style="font-weight:bold;vertical-align:top;">is_scheduler</td><td style="vertical-align:top;">:</td><td><div>False</div></td></tr><tr><td style="font-weight:bold;vertical-align:top;">is_shell</td><td style="vertical-align:top;">:</td><td><div>False</div></td></tr><tr><td style="font-weight:bold;vertical-align:top;">now</td><td style="vertical-align:top;">:</td><td><div>datetime.datetime(2016, 3, 22, 16, 8, 50, 856000)</div></td></tr><tr><td style="font-weight:bold;vertical-align:top;">url</td><td style="vertical-align:top;">:</td><td><div>/CUP</div></td></tr><tr><td style="font-weight:bold;vertical-align:top;">utcnow</td><td style="vertical-align:top;">:</td><td><div>datetime.datetime(2016, 3, 22, 15, 8, 50, 856000)</div></td></tr><tr><td style="font-weight:bold;vertical-align:top;">wsgi</td><td style="vertical-align:top;">:</td><td><div>&lt;gluon.main.LazyWSGI object at 0x0000000008471358&gt;</div></td></tr></table></div>'
tRp62
sS'frames'
p63
(lp64
(dp65
S'file'
p66
S'C:\\Users\\Administrator.DATASCIENCEVM\\Dropbox\\______________myDevProjects\\myWebApps\\myWebApps\\web2py\\gluon\\restricted.py'
p67
sS'dump'
p68
(dp69
S'environment'
p70
S"{'A': <class 'gluon.html.A'>, 'ANY_OF': <class 'gluon.validators.ANY_OF'>, 'ASSIGNJS': <function ASSIGNJS>, 'Agente': <Table Agente (id,id_auth_user,codice,nome,cap,via,descrizione)>, 'AppConfig': <function AppConfig>, 'Auth': <class 'gluon.tools.Auth'>, 'B': <class 'gluon.html.B'>, 'BEAUTIFY': <class 'gluon.html.BEAUTIFY'>, 'BODY': <class 'gluon.html.BODY'>, 'BR': <class 'gluon.html.BR'>, ...}"
p71
sS'ccode'
p72
S'<code object <module> at 0000000008B08730, file ...s\\web2py\\applications\\CUP\\models\\db.py", line 13>'
p73
ssS'lnum'
p74
I227
sS'lines'
p75
(dp76
I224
S'            ccode = code'
p77
sI225
S'        else:'
p78
sI226
S'            ccode = compile2(code, layer)'
p79
sI227
S'        exec ccode in environment'
p80
sI228
S'    except HTTP:'
p81
sI229
S'        raise'
p82
sI230
S'    except RestrictedError:'
p83
sI231
S'        # do not encapsulate (obfuscate) the original RestrictedError'
p84
sI222
S'    try:'
p85
sI223
S'        if isinstance(code, types.CodeType):'
p86
ssS'call'
p87
S"(code='# -*- coding: utf-8 -*-\\n\\n#######################...tables:\\n    db[table]._enable_record_versioning()', environment={'A': <class 'gluon.html.A'>, 'ANY_OF': <class 'gluon.validators.ANY_OF'>, 'ASSIGNJS': <function ASSIGNJS>, 'Agente': <Table Agente (id,id_auth_user,codice,nome,cap,via,descrizione)>, 'AppConfig': <function AppConfig>, 'Auth': <class 'gluon.tools.Auth'>, 'B': <class 'gluon.html.B'>, 'BEAUTIFY': <class 'gluon.html.BEAUTIFY'>, 'BODY': <class 'gluon.html.BODY'>, 'BR': <class 'gluon.html.BR'>, ...}, layer=r'C:\\Users\\Administrator.DATASCIENCEVM\\Dropbox\\___...ps\\myWebApps\\web2py\\applications\\CUP\\models\\db.py')"
p88
sS'func'
p89
S'restricted'
p90
sa(dp91
g66
S'C:\\Users\\Administrator.DATASCIENCEVM\\Dropbox\\______________myDevProjects\\myWebApps\\myWebApps\\web2py\\applications\\CUP\\models\\db.py'
p92
sg68
(dp93
S'table'
p94
S"'auth_membership_archive_archive_archive_archive_archive_archive_archive_archive_archive'"
p95
sS'db'
p96
S'<DAL uri="sqlite://storage.sqlite">'
p97
sS']._enable_record_versioning'
p98
S'undefined'
p99
ssg74
I407
sg75
(dp100
I398
S"#db.Performance.id_Prestazione.requires=IS_IN_DB( db, 'Prestazione.id', ' %(id_Servizio)s %(id_Fornitore)s %(id_Cliente)s %(id_Stato_prestazione)s %(messaggio_utente)s %(messaggio_studio)s %(servizio_richiesto_non_disponibile)s %(servizio_richiesto_con_codice_esenzione)s %(codice_esenzione)s %(data)s %(ora)s %(prezzo_SSR)s %(ticket_SSR)s %(prezzo_fornitore)s %(IVA)s %(prezzo_bolli)s')"
p101
sI399
S"#db.Soddisfazione.id_Prestazione.requires=IS_IN_DB( db, 'Prestazione.id', ' %(id_Servizio)s %(id_Fornitore)s %(id_Cliente)s %(id_Stato_prestazione)s %(messaggio_utente)s %(messaggio_studio)s %(servizio_richiesto_non_disponibile)s %(servizio_richiesto_con_codice_esenzione)s %(codice_esenzione)s %(data)s %(ora)s %(prezzo_SSR)s %(ticket_SSR)s %(prezzo_fornitore)s %(IVA)s %(prezzo_bolli)s')"
p102
sI400
S"#db.Prezzi_SSR.id_Servizio.requires=IS_IN_DB( db, 'Servizio.id', ' %(id_Categoria_servizio)s %(codice)s %(codice_numerico)s %(nome)s %(descrizione)s %(link_informazioni)s %(consenso_informato_da_firmare)s')"
p103
sI401
S''
sI402
S''
sI403
S'# end generated source code from SQLDesigner'
p104
sI404
S'## after defining tables, uncomment below to enable auditing'
p105
sI405
S'auth.enable_record_versioning(db)'
p106
sI406
S'for table in db.tables:'
p107
sI407
S'    db[table]._enable_record_versioning()'
p108
ssg87
S'()'
p109
sg89
S'<module>'
p110
sa(dp111
g66
S'C:\\Users\\Administrator.DATASCIENCEVM\\Dropbox\\______________myDevProjects\\myWebApps\\myWebApps\\web2py\\gluon\\packages\\dal\\pydal\\objects.py'
p112
sg68
(dp113
S'clones'
p114
S'[<pydal.objects.Field object>, <pydal.objects.Field object>, <pydal.objects.Field object>, <pydal.objects.Field object>, <pydal.objects.Field object>, <pydal.objects.Field object>, <pydal.objects.Field object>, <pydal.objects.Field object>, <pydal.objects.Field object>]'
p115
sS'self'
p116
S'<Table auth_membership_archive_archive_archive_a...e,created_on,created_by,modified_on,modified_by)>'
p117
sS'self._format'
p118
S'None'
p119
sS'builtinformat'
p120
S'<built-in function format>'
p121
sS'builtindict'
p122
S"<type 'dict'>"
p123
ssg74
I389
sg75
(dp124
I384
S"                field.clone(unique=False, type=field.type if nfk else 'bigint')"
p125
sI385
S'                )'
p126
sI386
S'        archive_db.define_table('
p127
sI387
S'            archive_name,'
p128
sI388
S'            Field(current_record, field_type, label=current_record_label),'
p129
sI389
S'            *clones, **dict(format=self._format))'
p130
sI390
S''
sI391
S'        self._before_update.append('
p131
sI392
S'            lambda qset, fs, db=archive_db, an=archive_name, cn=current_record:'
p132
sI393
S'                                archive_record(qset, fs, db[an], cn))'
p133
ssg87
S'(self=<Table auth_membership_archive_archive_archive_a...e,created_on,created_by,modified_on,modified_by)>, archive_db=<DAL uri="sqlite://storage.sqlite">, archive_name=\'auth_membership_archive_archive_archive_archive_archive_archive_archive_archive_archive_archive\', is_active=\'is_active\', current_record=\'current_record\', current_record_label=None)'
p134
sg89
S'_enable_record_versioning'
p135
sa(dp136
g66
S'C:\\Users\\Administrator.DATASCIENCEVM\\Dropbox\\______________myDevProjects\\myWebApps\\myWebApps\\web2py\\gluon\\packages\\dal\\pydal\\base.py'
p137
sg68
(dp138
S'fields'
p139
S'(<pydal.objects.Field object>, <pydal.objects.Field object>, <pydal.objects.Field object>, <pydal.objects.Field object>, <pydal.objects.Field object>, <pydal.objects.Field object>, <pydal.objects.Field object>, <pydal.objects.Field object>, <pydal.objects.Field object>, <pydal.objects.Field object>)'
p140
sS'self'
p141
S'<DAL uri="sqlite://storage.sqlite">'
p142
sS'args'
p143
S"{'format': None}"
p144
sS'tablename'
p145
S"'auth_membership_archive_archive_archive_archive_archive_archive_archive_archive_archive_archive'"
p146
sS'table'
p147
g99
sS'self.lazy_define_table'
p148
S'<bound method DAL.lazy_define_table of <DAL uri="sqlite://storage.sqlite">>'
p149
ssg74
I834
sg75
(dp150
I832
S'            table = None'
p151
sI833
S'        else:'
p152
sI834
S'            table = self.lazy_define_table(tablename,*fields,**args)'
p153
sI835
S'        if not tablename in self.tables:'
p154
sI836
S'            self.tables.append(tablename)'
p155
sI837
S'        return table'
p156
sI838
S''
sI829
S'                    % (tablename,invalid_args))'
p157
sI830
S'        if self._lazy_tables and tablename not in self._LAZY_TABLES:'
p158
sI831
S'            self._LAZY_TABLES[tablename] = (tablename,fields,args)'
p159
ssg87
S'(self=<DAL uri="sqlite://storage.sqlite">, tablename=\'auth_membership_archive_archive_archive_archive_archive_archive_archive_archive_archive_archive\', *fields=(<pydal.objects.Field object>, <pydal.objects.Field object>, <pydal.objects.Field object>, <pydal.objects.Field object>, <pydal.objects.Field object>, <pydal.objects.Field object>, <pydal.objects.Field object>, <pydal.objects.Field object>, <pydal.objects.Field object>, <pydal.objects.Field object>), **args={\'format\': None})'
p160
sg89
S'define_table'
p161
sa(dp162
g66
S'C:\\Users\\Administrator.DATASCIENCEVM\\Dropbox\\______________myDevProjects\\myWebApps\\myWebApps\\web2py\\gluon\\packages\\dal\\pydal\\base.py'
p163
sg68
(dp164
S'polymodel'
p165
S'None'
p166
ssg74
I873
sg75
(dp167
I868
S'            try:'
p168
sI869
S'                GLOBAL_LOCKER.acquire()'
p169
sI870
S'                self._lastsql = self._adapter.create_table('
p170
sI871
S'                    table,migrate=migrate,'
p171
sI872
S'                    fake_migrate=fake_migrate,'
p172
sI873
S'                    polymodel=polymodel)'
p173
sI874
S'            finally:'
p174
sI875
S'                GLOBAL_LOCKER.release()'
p175
sI876
S'        else:'
p176
sI877
S'            table._dbt = None'
p177
ssg87
S'(self=<DAL uri="sqlite://storage.sqlite">, tablename=\'auth_membership_archive_archive_archive_archive_archive_archive_archive_archive_archive_archive\', *fields=(<pydal.objects.Field object>, <pydal.objects.Field object>, <pydal.objects.Field object>, <pydal.objects.Field object>, <pydal.objects.Field object>, <pydal.objects.Field object>, <pydal.objects.Field object>, <pydal.objects.Field object>, <pydal.objects.Field object>, <pydal.objects.Field object>), **args={\'format\': None})'
p178
sg89
S'lazy_define_table'
p179
sa(dp180
g66
S'C:\\Users\\Administrator.DATASCIENCEVM\\Dropbox\\______________myDevProjects\\myWebApps\\myWebApps\\web2py\\gluon\\packages\\dal\\pydal\\adapters\\base.py'
p181
sg68
(dp182
S'query'
p183
S"'CREATE TABLE auth_membership_archive_archive_arc... REFERENCES auth_user (id) ON DELETE CASCADE  \\n);'"
p184
sS'self'
p185
S'<pydal.adapters.sqlite.SQLiteAdapter object>'
p186
sS'table'
p187
S'<Table auth_membership_archive_archive_archive_a...e,created_on,created_by,modified_on,modified_by)>'
p188
sS'self.create_sequence_and_triggers'
p189
S'<bound method SQLiteAdapter.create_sequence_and_... of <pydal.adapters.sqlite.SQLiteAdapter object>>'
p190
ssg74
I482
sg75
(dp191
I480
S'                            query), table)'
p192
sI481
S'            if not fake_migrate:'
p193
sI482
S'                self.create_sequence_and_triggers(query, table)'
p194
sI483
S'                db.commit()'
p195
sI484
S'                # Postgres geom fields are added now,'
p196
sI485
S'                # after the table has been created'
p197
sI486
S'                for query in postcreation_fields:'
p198
sI477
S'            if table._dbt:'
p199
sI478
S"                self.log('timestamp: %s\\n%s\\n'"
p200
sI479
S'                         % (datetime.datetime.today().isoformat(),'
p201
ssg87
S'(self=<pydal.adapters.sqlite.SQLiteAdapter object>, table=<Table auth_membership_archive_archive_archive_a...e,created_on,created_by,modified_on,modified_by)>, migrate=True, fake_migrate=False, polymodel=None)'
p202
sg89
S'create_table'
p203
sa(dp204
g66
S'C:\\Users\\Administrator.DATASCIENCEVM\\Dropbox\\______________myDevProjects\\myWebApps\\myWebApps\\web2py\\gluon\\packages\\dal\\pydal\\adapters\\base.py'
p205
sg68
(dp206
S'query'
p207
S"'CREATE TABLE auth_membership_archive_archive_arc... REFERENCES auth_user (id) ON DELETE CASCADE  \\n);'"
p208
sS'self'
p209
S'<pydal.adapters.sqlite.SQLiteAdapter object>'
p210
sS'self.execute'
p211
S'<bound method SQLiteAdapter.execute of <pydal.adapters.sqlite.SQLiteAdapter object>>'
p212
ssg74
I1366
sg75
(dp213
I1361
S''
sI1362
S'    def constraint_name(self, table, fieldname):'
p214
sI1363
S"        return '%s_%s__constraint' % (table,fieldname)"
p215
sI1364
S''
sI1365
S'    def create_sequence_and_triggers(self, query, table, **args):'
p216
sI1366
S'        self.execute(query)'
p217
sI1367
S''
sI1368
S''
sI1369
S'    def log_execute(self, *a, **b):'
p218
sI1370
S'        if not self.connection: raise ValueError(a[0])'
p219
ssg87
S"(self=<pydal.adapters.sqlite.SQLiteAdapter object>, query='CREATE TABLE auth_membership_archive_archive_arc... REFERENCES auth_user (id) ON DELETE CASCADE  \\n);', table=<Table auth_membership_archive_archive_archive_a...e,created_on,created_by,modified_on,modified_by)>, **args={})"
p220
sg89
S'create_sequence_and_triggers'
p221
sa(dp222
g66
S'C:\\Users\\Administrator.DATASCIENCEVM\\Dropbox\\______________myDevProjects\\myWebApps\\myWebApps\\web2py\\gluon\\packages\\dal\\pydal\\adapters\\base.py'
p223
sg68
(dp224
S'a'
S"('CREATE TABLE auth_membership_archive_archive_arc... REFERENCES auth_user (id) ON DELETE CASCADE  \\n);',)"
p225
sS'self'
p226
S'<pydal.adapters.sqlite.SQLiteAdapter object>'
p227
sS'b'
g21
sS'self.log_execute'
p228
S'<bound method SQLiteAdapter.log_execute of <pydal.adapters.sqlite.SQLiteAdapter object>>'
p229
ssg74
I1385
sg75
(dp230
I1380
S'        self.db._timings.append((command,time.time()-t0))'
p231
sI1381
S'        del self.db._timings[:-TIMINGSSIZE]'
p232
sI1382
S'        return ret'
p233
sI1383
S''
sI1384
S'    def execute(self, *a, **b):'
p234
sI1385
S'        return self.log_execute(*a, **b)'
p235
sI1386
S''
sI1387
S'    def execute_test_query(self):'
p236
sI1388
S'        return self.execute(self.test_query)'
p237
sI1389
S''
ssg87
S"(self=<pydal.adapters.sqlite.SQLiteAdapter object>, *a=('CREATE TABLE auth_membership_archive_archive_arc... REFERENCES auth_user (id) ON DELETE CASCADE  \\n);',), **b={})"
p238
sg89
S'execute'
p239
sa(dp240
g66
S'C:\\Users\\Administrator.DATASCIENCEVM\\Dropbox\\______________myDevProjects\\myWebApps\\myWebApps\\web2py\\gluon\\packages\\dal\\pydal\\adapters\\base.py'
p241
sg68
(dp242
S'a'
S"('CREATE TABLE auth_membership_archive_archive_arc... REFERENCES auth_user (id) ON DELETE CASCADE  \\n);',)"
p243
sS'b'
g21
sS'self'
p244
S'<pydal.adapters.sqlite.SQLiteAdapter object>'
p245
sS'ret'
p246
g99
sS'command'
p247
S"'CREATE TABLE auth_membership_archive_archive_arc... REFERENCES auth_user (id) ON DELETE CASCADE  \\n);'"
p248
sS'self.get_cursor'
p249
S'<bound method SQLiteAdapter.get_cursor of <pydal.adapters.sqlite.SQLiteAdapter object>>'
p250
sS').execute'
p251
g99
ssg74
I1379
sg75
(dp252
I1376
S"            self.db.logger.debug('SQL: %s' % command)"
p253
sI1377
S'        self.db._lastsql = command'
p254
sI1378
S'        t0 = time.time()'
p255
sI1379
S'        ret = self.get_cursor().execute(command, *a[1:], **b)'
p256
sI1380
S'        self.db._timings.append((command,time.time()-t0))'
p257
sI1381
S'        del self.db._timings[:-TIMINGSSIZE]'
p258
sI1382
S'        return ret'
p259
sI1383
S''
sI1374
S'            command = self.filter_sql_command(command)'
p260
sI1375
S'        if self.db._debug:'
p261
ssg87
S"(self=<pydal.adapters.sqlite.SQLiteAdapter object>, *a=('CREATE TABLE auth_membership_archive_archive_arc... REFERENCES auth_user (id) ON DELETE CASCADE  \\n);',), **b={})"
p262
sg89
S'log_execute'
p263
sasS'pyver'
p264
S'Python 2.7.11: C:\\Python27\\python.exe (prefix: C:\\Python27)'
p265
sS'session'
p266
g61
(S's\xba\x01\x00\x00<div><table><tr><td style="font-weight:bold;vertical-align:top;">flash</td><td style="vertical-align:top;">:</td><td><div>None</div></td></tr><tr><td style="font-weight:bold;vertical-align:top;">last_orderby</td><td style="vertical-align:top;">:</td><td><div>None</div></td></tr><tr><td style="font-weight:bold;vertical-align:top;">last_query</td><td style="vertical-align:top;">:</td><td><div>db.Cliente.id&gt;0</div></td></tr></table></div>'
tRp267
sS'etype'
p268
S"<class 'sqlite3.OperationalError'>"
p269
sS'date'
p270
S'Tue Mar 22 16:08:54 2016'
p271
sS'response'
p272
g61
(S's\x90\x18\x00\x00<div><table><tr><td style="font-weight:bold;vertical-align:top;">body</td><td style="vertical-align:top;">:</td><td><div>&lt;cStringIO.StringO object at 0x00000000086BAB90&gt;</div></td></tr><tr><td style="font-weight:bold;vertical-align:top;">cookies</td><td style="vertical-align:top;">:</td><td><div><table><tr><td style="font-weight:bold;vertical-align:top;">session_id_cup</td><td style="vertical-align:top;">:</td><td><div>127.0.0.1-0cb94dbd-c2c2-4d75-a0a4-acb6aa926f93<table><tr><td style="font-weight:bold;vertical-align:top;">comment</td><td style="vertical-align:top;">:</td><td><div></div></td></tr><tr><td style="font-weight:bold;vertical-align:top;">domain</td><td style="vertical-align:top;">:</td><td><div></div></td></tr><tr><td style="font-weight:bold;vertical-align:top;">expires</td><td style="vertical-align:top;">:</td><td><div></div></td></tr><tr><td style="font-weight:bold;vertical-align:top;">httponly</td><td style="vertical-align:top;">:</td><td><div></div></td></tr><tr><td style="font-weight:bold;vertical-align:top;">max-age</td><td style="vertical-align:top;">:</td><td><div></div></td></tr><tr><td style="font-weight:bold;vertical-align:top;">path</td><td style="vertical-align:top;">:</td><td><div>/</div></td></tr><tr><td style="font-weight:bold;vertical-align:top;">secure</td><td style="vertical-align:top;">:</td><td><div></div></td></tr><tr><td style="font-weight:bold;vertical-align:top;">version</td><td style="vertical-align:top;">:</td><td><div></div></td></tr></table></div></td></tr></table></div></td></tr><tr><td style="font-weight:bold;vertical-align:top;">delimiters</td><td style="vertical-align:top;">:</td><td><div><table><tr><td><div>{{</div></td></tr><tr><td><div>}}</div></td></tr></table></div></td></tr><tr><td style="font-weight:bold;vertical-align:top;">files</td><td style="vertical-align:top;">:</td><td><div><table></table></div></td></tr><tr><td style="font-weight:bold;vertical-align:top;">flash</td><td style="vertical-align:top;">:</td><td><div></div></td></tr><tr><td style="font-weight:bold;vertical-align:top;">form_label_separator</td><td style="vertical-align:top;">:</td><td><div></div></td></tr><tr><td style="font-weight:bold;vertical-align:top;">formstyle</td><td style="vertical-align:top;">:</td><td><div>bootstrap3_inline</div></td></tr><tr><td style="font-weight:bold;vertical-align:top;">generic_patterns</td><td style="vertical-align:top;">:</td><td><div><table><tr><td><div>*</div></td></tr></table></div></td></tr><tr><td style="font-weight:bold;vertical-align:top;">headers</td><td style="vertical-align:top;">:</td><td><div><table><tr><td style="font-weight:bold;vertical-align:top;">X-Powered-By</td><td style="vertical-align:top;">:</td><td><div>web2py</div></td></tr></table></div></td></tr><tr><td style="font-weight:bold;vertical-align:top;">menu</td><td style="vertical-align:top;">:</td><td><div><table></table></div></td></tr><tr><td style="font-weight:bold;vertical-align:top;">meta</td><td style="vertical-align:top;">:</td><td><div><table></table></div></td></tr><tr><td style="font-weight:bold;vertical-align:top;">models_to_run</td><td style="vertical-align:top;">:</td><td><div><table><tr><td><div>^\\w+\\.py$</div></td></tr><tr><td><div>^default/\\w+\\.py$</div></td></tr><tr><td><div>^default/index/\\w+\\.py$</div></td></tr></table></div></td></tr><tr><td style="font-weight:bold;vertical-align:top;">postprocessing</td><td style="vertical-align:top;">:</td><td><div><table></table></div></td></tr><tr><td style="font-weight:bold;vertical-align:top;">session_client</td><td style="vertical-align:top;">:</td><td><div>127.0.0.1</div></td></tr><tr><td style="font-weight:bold;vertical-align:top;">session_cookie_compression_level</td><td style="vertical-align:top;">:</td><td><div>None</div></td></tr><tr><td style="font-weight:bold;vertical-align:top;">session_cookie_expires</td><td style="vertical-align:top;">:</td><td><div>None</div></td></tr><tr><td style="font-weight:bold;vertical-align:top;">session_cookie_key</td><td style="vertical-align:top;">:</td><td><div>None</div></td></tr><tr><td style="font-weight:bold;vertical-align:top;">session_data_name</td><td style="vertical-align:top;">:</td><td><div>session_data_cup</div></td></tr><tr><td style="font-weight:bold;vertical-align:top;">session_file</td><td style="vertical-align:top;">:</td><td><div>&lt;open file &#x27;C:\\\\Users\\\\Administrator.DATASCIENCEVM\\\\Dropbox\\\\______________myDevProjects\\\\myWebApps\\\\myWebApps\\\\web2py\\\\applications\\\\CUP\\\\sessions\\\\00e\\\\0f1\\\\127.0.0.1-0cb94dbd-c2c2-4d75-a0a4-acb6aa926f93&#x27;, mode &#x27;rb+&#x27; at 0x000000000862B030&gt;</div></td></tr><tr><td style="font-weight:bold;vertical-align:top;">session_filename</td><td style="vertical-align:top;">:</td><td><div>C:\\Users\\Administrator.DATASCIENCEVM\\Dropbox\\______________myDevProjects\\myWebApps\\myWebApps\\web2py\\applications\\CUP\\sessions\\127.0.0.1-0cb94dbd-c2c2-4d75-a0a4-acb6aa926f93</div></td></tr><tr><td style="font-weight:bold;vertical-align:top;">session_hash</td><td style="vertical-align:top;">:</td><td><div>c657380452c5324b12878e5f02608c96</div></td></tr><tr><td style="font-weight:bold;vertical-align:top;">session_id</td><td style="vertical-align:top;">:</td><td><div>127.0.0.1-0cb94dbd-c2c2-4d75-a0a4-acb6aa926f93</div></td></tr><tr><td style="font-weight:bold;vertical-align:top;">session_id_name</td><td style="vertical-align:top;">:</td><td><div>session_id_cup</div></td></tr><tr><td style="font-weight:bold;vertical-align:top;">session_locked</td><td style="vertical-align:top;">:</td><td><div>True</div></td></tr><tr><td style="font-weight:bold;vertical-align:top;">session_masterapp</td><td style="vertical-align:top;">:</td><td><div>CUP</div></td></tr><tr><td style="font-weight:bold;vertical-align:top;">session_new</td><td style="vertical-align:top;">:</td><td><div>False</div></td></tr><tr><td style="font-weight:bold;vertical-align:top;">session_storage_type</td><td style="vertical-align:top;">:</td><td><div>file</div></td></tr><tr><td style="font-weight:bold;vertical-align:top;">status</td><td style="vertical-align:top;">:</td><td><div>200</div></td></tr><tr><td style="font-weight:bold;vertical-align:top;">view</td><td style="vertical-align:top;">:</td><td><div>default/index.html</div></td></tr></table></div>'
tRp273
sS'locals'
p274
(dp275
S'a'
S"('CREATE TABLE auth_membership_archive_archive_arc... REFERENCES auth_user (id) ON DELETE CASCADE  \\n);',)"
p276
sS'self'
p277
S'<pydal.adapters.sqlite.SQLiteAdapter object>'
p278
sS'b'
g21
sS'command'
p279
S"'CREATE TABLE auth_membership_archive_archive_arc... REFERENCES auth_user (id) ON DELETE CASCADE  \\n);'"
p280
sS't0'
p281
S'1458659334.372'
p282
sssS'traceback'
p283
S'Traceback (most recent call last):\n  File "C:\\Users\\Administrator.DATASCIENCEVM\\Dropbox\\______________myDevProjects\\myWebApps\\myWebApps\\web2py\\gluon\\restricted.py", line 227, in restricted\n    exec ccode in environment\n  File "C:\\Users\\Administrator.DATASCIENCEVM\\Dropbox\\______________myDevProjects\\myWebApps\\myWebApps\\web2py\\applications\\CUP\\models\\db.py", line 407, in <module>\n    db[table]._enable_record_versioning()\n  File "C:\\Users\\Administrator.DATASCIENCEVM\\Dropbox\\______________myDevProjects\\myWebApps\\myWebApps\\web2py\\gluon\\packages\\dal\\pydal\\objects.py", line 389, in _enable_record_versioning\n    *clones, **dict(format=self._format))\n  File "C:\\Users\\Administrator.DATASCIENCEVM\\Dropbox\\______________myDevProjects\\myWebApps\\myWebApps\\web2py\\gluon\\packages\\dal\\pydal\\base.py", line 834, in define_table\n    table = self.lazy_define_table(tablename,*fields,**args)\n  File "C:\\Users\\Administrator.DATASCIENCEVM\\Dropbox\\______________myDevProjects\\myWebApps\\myWebApps\\web2py\\gluon\\packages\\dal\\pydal\\base.py", line 873, in lazy_define_table\n    polymodel=polymodel)\n  File "C:\\Users\\Administrator.DATASCIENCEVM\\Dropbox\\______________myDevProjects\\myWebApps\\myWebApps\\web2py\\gluon\\packages\\dal\\pydal\\adapters\\base.py", line 482, in create_table\n    self.create_sequence_and_triggers(query, table)\n  File "C:\\Users\\Administrator.DATASCIENCEVM\\Dropbox\\______________myDevProjects\\myWebApps\\myWebApps\\web2py\\gluon\\packages\\dal\\pydal\\adapters\\base.py", line 1366, in create_sequence_and_triggers\n    self.execute(query)\n  File "C:\\Users\\Administrator.DATASCIENCEVM\\Dropbox\\______________myDevProjects\\myWebApps\\myWebApps\\web2py\\gluon\\packages\\dal\\pydal\\adapters\\base.py", line 1385, in execute\n    return self.log_execute(*a, **b)\n  File "C:\\Users\\Administrator.DATASCIENCEVM\\Dropbox\\______________myDevProjects\\myWebApps\\myWebApps\\web2py\\gluon\\packages\\dal\\pydal\\adapters\\base.py", line 1379, in log_execute\n    ret = self.get_cursor().execute(command, *a[1:], **b)\nOperationalError: table auth_membership_archive_archive_archive_archive_archive_archive_archive_archive_archive_archive already exists\n'
p284
s.