(dp1
S'output'
p2
S"<type 'exceptions.TypeError'> enable_record_versioning() takes at least 2 arguments (1 given)"
p3
sS'layer'
p4
S'C:\\Users\\Administrator.DATASCIENCEVM\\Dropbox\\______________myDevProjects\\myWebApps\\myWebApps\\web2py\\applications\\CUP\\models\\db.py'
p5
sS'code'
p6
S'# -*- coding: utf-8 -*-\n\n#########################################################################\n## This scaffolding model makes your app work on Google App Engine too\n## File is released under public domain and you can use without limitations\n#########################################################################\n\n## if SSL/HTTPS is properly configured and you want all HTTP requests to\n## be redirected to HTTPS, uncomment the line below:\n# request.requires_https()\n\n## app configuration made easy. Look inside private/appconfig.ini\nfrom gluon.contrib.appconfig import AppConfig\n## once in production, remove reload=True to gain full speed\nmyconf = AppConfig(reload=True)\n\n\nif not request.env.web2py_runtime_gae:\n    ## if NOT running on Google App Engine use SQLite or other DB\n    db = DAL(myconf.take(\'db.uri\'), pool_size=myconf.take(\'db.pool_size\', cast=int), check_reserved=[\'all\']) #qui potrei mettere migrate=False\nelse:\n    ## connect to Google BigTable (optional \'google:datastore://namespace\')\n    db = DAL(\'google:datastore+ndb\')\n    ## store sessions and tickets there\n    session.connect(request, response, db=db)\n    ## or store session in Memcache, Redis, etc.\n    ## from gluon.contrib.memdb import MEMDB\n    ## from google.appengine.api.memcache import Client\n    ## session.connect(request, response, db = MEMDB(Client()))\n\n## by default give a view/generic.extension to all actions from localhost\n## none otherwise. a pattern can be \'controller/function.extension\'\nresponse.generic_patterns = [\'*\'] if request.is_local else []\n## choose a style for forms\nresponse.formstyle = myconf.take(\'forms.formstyle\')  # or \'bootstrap3_stacked\' or \'bootstrap2\' or other\nresponse.form_label_separator = myconf.take(\'forms.separator\')\n\n\n## (optional) optimize handling of static files\n# response.optimize_css = \'concat,minify,inline\'\n# response.optimize_js = \'concat,minify,inline\'\n## (optional) static assets folder versioning\n# response.static_version = \'0.0.0\'\n#########################################################################\n## Here is sample code if you need for\n## - email capabilities\n## - authentication (registration, login, logout, ... )\n## - authorization (role based authorization)\n## - services (xml, csv, json, xmlrpc, jsonrpc, amf, rss)\n## - old style crud actions\n## (more options discussed in gluon/tools.py)\n#########################################################################\n\nfrom gluon.tools import Auth, Service, PluginManager\n\nauth = Auth(db)\nservice = Service()\nplugins = PluginManager()\n\n## create all tables needed by auth if not custom tables\nauth.define_tables(username=False, signature=False)\n\n## configure email\nmail = auth.settings.mailer\nmail.settings.server = \'logging\' if request.is_local else myconf.take(\'smtp.server\')\nmail.settings.sender = myconf.take(\'smtp.sender\')\nmail.settings.login = myconf.take(\'smtp.login\')\n\n## configure auth policy\nauth.settings.registration_requires_verification = False\nauth.settings.registration_requires_approval = False\nauth.settings.reset_password_requires_verification = True\n\n#########################################################################\n## Define your tables below (or better in another model file) for example\n##\n## >>> db.define_table(\'mytable\',Field(\'myfield\',\'string\'))\n##\n## Fields can be \'string\',\'text\',\'password\',\'integer\',\'double\',\'boolean\'\n##       \'date\',\'time\',\'datetime\',\'blob\',\'upload\', \'reference TABLENAME\'\n## There is an implicit \'id integer autoincrement\' field\n## Consult manual for more options, validators, etc.\n##\n## More API examples for controllers:\n##\n## >>> db.mytable.insert(myfield=\'value\')\n## >>> rows=db(db.mytable.myfield==\'value\').select(db.mytable.ALL)\n## >>> for row in rows: print row.id, row.myfield\n#########################################################################\n\n# My application DB\n# WARNING: notnull=True, default=\'NULL\' is a contradition and generates a strange error after some lines !!!!\n# The following source code was generated by SQLDesigner and reordered to avoid missing reference (eg. Servizio must come before Categoria_servizio which refers to it)\n\n\n#mie variabili\nvaloreNonDefinito=\'000\'\nmostraCodiceNome=\' %(codice)s %(nome)s\'\n\n#schema DB creato a partire da (ma non identico a) schema ER del 16/03/2016\n\n#abilito il versioning del db\nauth.enable_record_versioning()\n\n#campi comuni a tutte le tabelle\ndb._common_fields.append(auth.signature)\n\n#tabelle e relazioni\ndb.define_table("Categoria_servizio",\n    Field("codice", "string", default=valoreNonDefinito,length=3),\n    Field("nome", "string", default=None))#,\n    #migrate=False)\n\ndb.define_table("Stato_prestazione",\n    Field("codice", "string", notnull=True, default=valoreNonDefinito, length=3),\n    Field("nome", "string", default=None))\n\ndb.define_table("Agente",\n    Field("id_auth_user", "reference auth_user"),\n    Field("codice", "string", default=valoreNonDefinito),\n    Field("nome", "string", default=None),\n    Field("cap", "string", default=\'00000\', length=5),\n    Field("via", "string", default=None),\n    Field("descrizione", "text", default=None))\ndb.define_table("Cliente", \n    db.Agente)\ndb.define_table("Fornitore", \n    db.Agente)\ndb.Agente.id_auth_user.requires=IS_IN_DB( db, \'auth_user.id\', \'\') \n#il codice precedente \xc3\xa8 equivalente a \n#db.define_table("Cliente",\n#    Field("id_auth_user", "reference auth_user"),\n#    Field("codice", "string", default=None),\n#    Field("nome", "string", default=None),\n#    Field("cap", "string", default=None),\n#    Field("via", "string", default=None),\n#    Field("descrizione", "text", default=None))\n#db.define_table("Fornitore",\n#    Field("id_auth_user", "reference auth_user"),\n#    Field("codice", "string", default=None),\n#    Field("nome", "string", default=None),\n#    Field("cap", "string", default=None),\n#    Field("via", "string", default=None),\n#    Field("descrizione", "text", default=None))\n#db.Cliente.id_auth_user.requires=IS_IN_DB( db, \'auth_user.id\', \'\')\n#db.Fornitore.id_auth_user.requires=IS_IN_DB( db, \'auth_user.id\', \'\')\n\ndb.define_table("Servizio",\n    Field("id_Categoria_servizio", "reference Categoria_servizio"),\n    Field("codice", "string", default=valoreNonDefinito),\n    Field("nome", "string", default=None),\n    Field("descrizione", "text", default=None),\n    Field("prezzo_SSR", "integer", default=None),\n    Field("ticket_SSR", "double", default=None))\ndb.Servizio.id_Categoria_servizio.requires=IS_IN_DB( db, \'Categoria_servizio.id\', mostraCodiceNome)\n\ndb.define_table("Prestazione",\n    Field("id_Servizio", "reference Servizio"),\n    Field("id_Fornitore", "reference Fornitore"),\n    Field("id_Cliente", "reference Cliente"),\n    Field("id_Stato_prestazione", "reference Stato_prestazione"),\n    Field("messaggio_utente", "text", default=None),\n    Field("messaggio_studio", "text", default=None),\n    Field("servizio_richiesto_disponibile", "boolean", default=None),\n    Field("giorno", "date", default=None),\n    Field("ora", "time", default=None),\n    Field("prezzo", "double", default=None))\ndb.Prestazione.id_Servizio.requires=IS_IN_DB( db, \'Servizio.id\', mostraCodiceNome)\ndb.Prestazione.id_Fornitore.requires=IS_IN_DB( db, \'Fornitore.id\', mostraCodiceNome)\ndb.Prestazione.id_Cliente.requires=IS_IN_DB( db, \'Cliente.id\', mostraCodiceNome)\ndb.Prestazione.id_Stato_prestazione.requires=IS_IN_DB( db, \'Stato_prestazione.id\', mostraCodiceNome)\n\ndb.define_table("Servizio_disponibile",\n    Field("id_Servizio", "reference Servizio"),\n    Field("id_Fornitore", "reference Fornitore"),\n    Field("id_Categoria_servizio", "reference Categoria_servizio"),\n    Field("Lunedi_mattina", "boolean", default=None),\n    Field("Lunedi_pomeriggio", "boolean", default=None),\n    Field("Martedi_mattina", "boolean", default=None),\n    Field("Martedi_pomeriggio", "boolean", default=None),\n    Field("Mercoledi_mattina", "boolean", default=None),\n    Field("Mercoledi_pomeriggio", "boolean", default=None),\n    Field("Giovedi_mattina", "boolean", default=None),\n    Field("Giovedi_pomeriggio", "boolean", default=None),\n    Field("Venerdi_mattina", "boolean", default=None),\n    Field("Venerdi_pomeriggio", "boolean", default=None),\n    Field("Sabato_mattina", "boolean", default=None),\n    Field("Sabato_pomeriggio", "boolean", default=None),\n    Field("Domenica_mattina", "boolean", default=None),\n    Field("Domenica_pomeriggio", "boolean", default=None),\n    Field("prezzo_listino", "double", default=None),\n    Field("prezzo_medio", "integer", default=None))\ndb.Servizio_disponibile.id_Servizio.requires=IS_IN_DB( db, \'Servizio.id\', mostraCodiceNome)\ndb.Servizio_disponibile.id_Fornitore.requires=IS_IN_DB( db, \'Fornitore.id\', mostraCodiceNome)\ndb.Servizio_disponibile.id_Categoria_servizio.requires=IS_IN_DB( db, \'Categoria_servizio.id\', mostraCodiceNome)\n\ndb.define_table("Soddisfazione",\n    Field("punteggio_cliente", "integer", default=None),\n    Field("commento_cliente", "text", default=None),\n    Field("commento_fornitore", "text", default=None),\n    Field("commento_cliente_pubblicato", "text", default=None),\n    Field("commento_fornitore_pubblicato", "text", default=None),\n    Field("id_Fornitore", "reference Fornitore"),\n    Field("id_Cliente", "reference Cliente"),\n    Field("pubblicato", "boolean", default=False))\ndb.Soddisfazione.id_Fornitore.requires=IS_IN_DB( db, \'Fornitore.id\', mostraCodiceNome)\ndb.Soddisfazione.id_Cliente.requires=IS_IN_DB( db, \'Cliente.id\', mostraCodiceNome)\n\n""" Relations between tables (remove fields you don\'t need from requires) """\n#db.Agente.id_auth_user.requires=IS_IN_DB( db, \'auth_user.id\', \'\') \n# equivalente a \n#db.Cliente.id_auth_user.requires=IS_IN_DB( db, \'auth_user.id\', \'\')\n#db.Fornitore.id_auth_user.requires=IS_IN_DB( db, \'auth_user.id\', \'\')\n#db.Servizio.id_Categoria_servizio.requires=IS_IN_DB( db, \'Categoria_servizio.id\', \' %(codice)s\')\n#db.Prestazione.id_Servizio.requires=IS_IN_DB( db, \'Servizio.id\', \' %(id_Categoria_servizio)s %(codice)s %(nome)s %(descrizione)s %(prezzo_SSR)s %(ticket_SSR)s\')\n#db.Prestazione.id_Fornitore.requires=IS_IN_DB( db, \'Fornitore.id\', \' %(id_auth_user)s %(codice)s %(nome)s %(cap)s %(via)s %(descrizione)s\')\n#db.Prestazione.id_Cliente.requires=IS_IN_DB( db, \'Cliente.id\', \' %(id_auth_user)s %(codice)s %(nome)s %(cap)s %(via)s %(descrizione)s\')\n#db.Prestazione.id_Stato_prestazione.requires=IS_IN_DB( db, \'Stato_prestazione.id\', \' %(codice)s\')\n#db.Servizio_disponibile.id_Servizio.requires=IS_IN_DB( db, \'Servizio.id\', \' %(id_Categoria_servizio)s %(codice)s %(nome)s %(descrizione)s %(prezzo_SSR)s %(ticket_SSR)s\')\n#db.Servizio_disponibile.id_Fornitore.requires=IS_IN_DB( db, \'Fornitore.id\', \' %(id_auth_user)s %(codice)s %(nome)s %(cap)s %(via)s %(descrizione)s\')\n#db.Servizio_disponibile.id_Categoria_servizio.requires=IS_IN_DB( db, \'Categoria_servizio.id\', \' %(codice)s\')\n#db.Soddisfazione.id_Fornitore.requires=IS_IN_DB( db, \'Fornitore.id\', \' %(id_auth_user)s %(codice)s %(nome)s %(cap)s %(via)s %(descrizione)s\')\n#db.Soddisfazione.id_Cliente.requires=IS_IN_DB( db, \'Cliente.id\', \' %(id_auth_user)s %(codice)s %(nome)s %(cap)s %(via)s %(descrizione)s\')\n\n#DB basato su schema del 12 marzo 2016\n#db.define_table("Categoria_servizio",\n#    Field("codice", "string", default=None),\n#    Field("codice_numerico", "string", default=None))\n\n#db.define_table("Stato_prestazione",\n#    Field("codice", "string", notnull=True, default=\'Richiesta\'),\n#    Field("codice_numerico", "integer", notnull=True, default=1))\n\n#db.define_table("Previsioni_servizio_disponibile",\n#    Field("link_informazioni", "string", default=None),\n#    Field("prezzo_medio", "double", default=None),\n#    Field("tempo_lista_attesa_medio", "double", default=None),\n#    Field("tempo_attesa_medio", "double", default=None),\n#    Field("tempo_durata_medio", "double", default=None),\n#    Field("tempo_informazione_medio", "double", default=None),\n#    Field("probabilita_efficienza_organizzativa", "double", default=None),\n#    Field("probabilita_efficienza_comunicativa", "double", default=None))\n\n##db.define_table("auth_user",)\n\n#db.define_table("Cliente",\n#    Field("id_auth_user", "reference auth_user"),\n#    Field("codice", "string", default=None),\n#    Field("codice_numerico", "string", default=None),\n#    Field("nome", "string", default=None),\n#    Field("cap", "string", default=None),\n#    Field("via", "string", default=None),\n#    Field("descrizione", "text", default=None),\n#    Field("link_informazioni", "string", default=None))\n\n#db.define_table("Fornitore",\n#    Field("id_auth_user", "reference auth_user"),\n#    Field("codice", "string", default=None),\n#    Field("codice_numerico", "string", default=None),\n#    Field("nome", "string", default=None),\n#    Field("cap", "string", default=None),\n#    Field("via", "string", default=None),\n#    Field("descrizione", "text", default=None),\n#    Field("link_informazioni", "string", default=None))\n\n#db.define_table("Servizio",\n#     Field("id_Categoria_servizio", "reference Categoria_servizio"),\n#     Field("codice", "string", default=None),\n#     Field("codicenumerico", "integer", default=None),\n#     Field("nome", "string", default=None),\n#     Field("descrizione", "text", default=None),\n#     Field("link_informazioni", "string", default=None),\n#     Field("consenso_informato_da_firmare", "boolean", default=None))\n\n#db.define_table("Prestazione",\n#     Field("id_Servizio", "reference Servizio"),\n#     Field("id_Fornitore", "reference Fornitore"),\n#     Field("id_Cliente", "reference Cliente"),\n#     Field("id_Stato_prestazione", "reference Stato_prestazione"),\n#     Field("messaggio_utente", "text", default=None),\n#     Field("messaggio_studio", "text", default=None),\n#     Field("servizio_richiesto_non_disponibile", "boolean", default=None),\n#     Field("servizio_richiesto_con_codice_esenzione", "boolean", default=None),\n#     Field("codice_esenzione", "string", default=None),\n#     Field("giorno", "date", default=None),\n#     Field("ora", "time", default=None),\n#     Field("prezzo_SSR", "double", default=None),\n#     Field("ticket_SSR", "integer", default=None),\n#     Field("prezzo_fornitore", "double", default=None),\n#     Field("IVA", "double", default=None),\n#     Field("prezzo_bolli", "integer", default=None))\n\n#db.define_table("Servizio_disponibile",\n#    Field("id_Servizio", "reference Servizio"),\n#    Field("id_Fornitore", "reference Fornitore"),\n#    Field("id_Categoria_servizio", "reference Categoria_servizio"),\n#    Field("id_Previsioni_servizio_disponibile", "reference Previsioni_servizio_disponibile"),\n#    Field("Lunedi_mattina", "boolean", default=None),\n#    Field("Lunedi_pomeriggio", "boolean", default=None),\n#    Field("Martedi_mattina", "boolean", default=None),\n#    Field("Martedi_pomeriggio", "boolean", default=None),\n#    Field("Mercoledi_mattina", "boolean", default=None),\n#    Field("Mercoledi_pomeriggio", "boolean", default=None),\n#    Field("Giovedi_mattina", "boolean", default=None),\n#    Field("Giovedi_pomeriggio", "boolean", default=None),\n#    Field("Venerdi_mattina", "boolean", default=None),\n#    Field("Venerdi_pomeriggio", "boolean", default=None),\n#    Field("Sabato_mattina", "boolean", default=None),\n#    Field("Sabato_pomeriggio", "boolean", default=None),\n#    Field("Domenica_mattina", "boolean", default=None),\n#    Field("Domenica_pomeriggio", "boolean", default=None),\n#    Field("prezzo_locale", "integer", default=None))\n\n#db.define_table("Performance",\n#    Field("id_Prestazione", "reference Prestazione"),\n#    Field("data_effettiva", "date", default=None),\n#    Field("ora_effettiva", "time", default=None),\n#    Field("prezzo_pagato", "integer", default=None),\n#    Field("tempo_attesa", "double", default=None),\n#    Field("tempo_esecuzione", "double", default=None),\n#    Field("tempo_informazione", "double", default=None),\n#    Field("informazioni_fornite_a_voce", "boolean", default=None),\n#    Field("informazioni_fornite_con_mezzi_di_supporto", "boolean", default=None),\n#    Field("consenso_informato_firmato", "boolean", default=None))\n\n#db.define_table("Soddisfazione",\n#    Field("id_Prestazione", "reference Prestazione"),\n#    Field("punteggio_cliente", "integer", default=None),\n#    Field("commento_cliente", "text", default=None),\n#    Field("commento_fornitore", "text", default=None),\n#    Field("commento_cliente_pubblicato", "text", default=None),\n#    Field("commento_fornitore_pubblicato", "text", default=None))\n\n#db.define_table("Prezzi_SSR",\n#    Field("id_Servizio", "reference Servizio"),\n#    Field("codice_regione", "integer", default=None),\n#    Field("nome_regione", "integer", default=None),\n#    Field("prezzo_al_cliente", "double", default=None),\n#    Field("ticket", "integer", default=None),\n#    Field("prezzo_al_fornitore", "double", default=None),\n#    Field("data_inizio", "date", default=None),\n#    Field("in_vigore", "boolean", default=1),\n#    Field("data_fine", "date", default=None))\n\n#""" Relations between tables (remove fields you don\'t need from requires) """\n#db.Cliente.id_auth_user.requires=IS_IN_DB( db, \'auth_user.id\', \'\')\n#db.Fornitore.id_auth_user.requires=IS_IN_DB( db, \'auth_user.id\', \'\')\n#db.Servizio.id_Categoria_servizio.requires=IS_IN_DB( db, \'Categoria_servizio.id\', \' %(codice)s %(codice_numerico)s\')\n#db.Prestazione.id_Servizio.requires=IS_IN_DB( db, \'Servizio.id\', \' %(id_Categoria_servizio)s %(codice)s %(codice_numerico)s %(nome)s %(descrizione)s %(link_informazioni)s %(consenso_informato_da_firmare)s\')\n#db.Prestazione.id_Fornitore.requires=IS_IN_DB( db, \'Fornitore.id\', \' %(id_auth_user)s %(codice)s %(codice_numerico)s %(nome)s %(cap)s %(via)s %(descrizione)s %(link_informazioni)s\')\n#db.Prestazione.id_Cliente.requires=IS_IN_DB( db, \'Cliente.id\', \' %(id_auth_user)s %(codice)s %(codice_numerico)s %(nome)s %(cap)s %(via)s %(descrizione)s %(link_informazioni)s\')\n#db.Prestazione.id_Stato_prestazione.requires=IS_IN_DB( db, \'Stato_prestazione.id\', \' %(codice)s %(codice_numerico)s\')\n#db.Servizio_disponibile.id_Servizio.requires=IS_IN_DB( db, \'Servizio.id\', \' %(id_Categoria_servizio)s %(codice)s %(codice_numerico)s %(nome)s %(descrizione)s %(link_informazioni)s %(consenso_informato_da_firmare)s\')\n#db.Servizio_disponibile.id_Fornitore.requires=IS_IN_DB( db, \'Fornitore.id\', \' %(id_auth_user)s %(codice)s %(codice_numerico)s %(nome)s %(cap)s %(via)s %(descrizione)s %(link_informazioni)s\')\n#db.Servizio_disponibile.id_Categoria_servizio.requires=IS_IN_DB( db, \'Categoria_servizio.id\', \' %(codice)s %(codice_numerico)s\')\n#db.Servizio_disponibile.id_Previsioni_servizio_disponibile.requires=IS_IN_DB( db, \'Previsioni_servizio_disponibile.id\', \' %(link_informazioni)s %(prezzo_medio)s %(tempo_lista_attesa_medio)s %(tempo_attesa_medio)s %(tempo_durata_medio)s %(tempo_informazione_medio)s %(probabilita_efficienza_organizzativa)s %(probabilita_efficienza_comunicativa)s\')\n#db.Performance.id_Prestazione.requires=IS_IN_DB( db, \'Prestazione.id\', \' %(id_Servizio)s %(id_Fornitore)s %(id_Cliente)s %(id_Stato_prestazione)s %(messaggio_utente)s %(messaggio_studio)s %(servizio_richiesto_non_disponibile)s %(servizio_richiesto_con_codice_esenzione)s %(codice_esenzione)s %(data)s %(ora)s %(prezzo_SSR)s %(ticket_SSR)s %(prezzo_fornitore)s %(IVA)s %(prezzo_bolli)s\')\n#db.Soddisfazione.id_Prestazione.requires=IS_IN_DB( db, \'Prestazione.id\', \' %(id_Servizio)s %(id_Fornitore)s %(id_Cliente)s %(id_Stato_prestazione)s %(messaggio_utente)s %(messaggio_studio)s %(servizio_richiesto_non_disponibile)s %(servizio_richiesto_con_codice_esenzione)s %(codice_esenzione)s %(data)s %(ora)s %(prezzo_SSR)s %(ticket_SSR)s %(prezzo_fornitore)s %(IVA)s %(prezzo_bolli)s\')\n#db.Prezzi_SSR.id_Servizio.requires=IS_IN_DB( db, \'Servizio.id\', \' %(id_Categoria_servizio)s %(codice)s %(codice_numerico)s %(nome)s %(descrizione)s %(link_informazioni)s %(consenso_informato_da_firmare)s\')\n\n\n# end generated source code from SQLDesigner\n## after defining tables, uncomment below to enable auditing\n# auth.enable_record_versioning(db)'
p7
sS'snapshot'
p8
(dp9
S'exception'
p10
(dp11
S'__hash__'
p12
S"<method-wrapper '__hash__' of exceptions.TypeError object>"
p13
sS'__setattr__'
p14
S"<method-wrapper '__setattr__' of exceptions.TypeError object>"
p15
sS'__reduce_ex__'
p16
S'<built-in method __reduce_ex__ of exceptions.TypeError object>'
p17
sS'__getslice__'
p18
S"<method-wrapper '__getslice__' of exceptions.TypeError object>"
p19
sS'__getitem__'
p20
S"<method-wrapper '__getitem__' of exceptions.TypeError object>"
p21
sS'__setstate__'
p22
S'<built-in method __setstate__ of exceptions.TypeError object>'
p23
sS'__reduce__'
p24
S'<built-in method __reduce__ of exceptions.TypeError object>'
p25
sS'__str__'
p26
S"<method-wrapper '__str__' of exceptions.TypeError object>"
p27
sS'__format__'
p28
S'<built-in method __format__ of exceptions.TypeError object>'
p29
sS'__getattribute__'
p30
S"<method-wrapper '__getattribute__' of exceptions.TypeError object>"
p31
sS'__class__'
p32
S"<type 'exceptions.TypeError'>"
p33
sS'__unicode__'
p34
S'<built-in method __unicode__ of exceptions.TypeError object>'
p35
sS'__delattr__'
p36
S"<method-wrapper '__delattr__' of exceptions.TypeError object>"
p37
sS'__subclasshook__'
p38
S'<built-in method __subclasshook__ of type object>'
p39
sS'__repr__'
p40
S"<method-wrapper '__repr__' of exceptions.TypeError object>"
p41
sS'__dict__'
p42
S'{}'
p43
sS'args'
p44
S"('enable_record_versioning() takes at least 2 arguments (1 given)',)"
p45
sS'__sizeof__'
p46
S'<built-in method __sizeof__ of exceptions.TypeError object>'
p47
sS'__doc__'
p48
S"'Inappropriate argument type.'"
p49
sS'__init__'
p50
S"<method-wrapper '__init__' of exceptions.TypeError object>"
p51
sS'__new__'
p52
S'<built-in method __new__ of type object>'
p53
ssS'evalue'
p54
S'enable_record_versioning() takes at least 2 arguments (1 given)'
p55
sS'request'
p56
cgluon.html
XML_unpickle
p57
(S's\xdc\\\x00\x00<div><table><tr><td style="font-weight:bold;vertical-align:top;">ajax</td><td style="vertical-align:top;">:</td><td><div>False</div></td></tr><tr><td style="font-weight:bold;vertical-align:top;">application</td><td style="vertical-align:top;">:</td><td><div>CUP</div></td></tr><tr><td style="font-weight:bold;vertical-align:top;">args</td><td style="vertical-align:top;">:</td><td><div><table></table></div></td></tr><tr><td style="font-weight:bold;vertical-align:top;">cid</td><td style="vertical-align:top;">:</td><td><div>None</div></td></tr><tr><td style="font-weight:bold;vertical-align:top;">client</td><td style="vertical-align:top;">:</td><td><div>127.0.0.1</div></td></tr><tr><td style="font-weight:bold;vertical-align:top;">controller</td><td style="vertical-align:top;">:</td><td><div>default</div></td></tr><tr><td style="font-weight:bold;vertical-align:top;">cookies</td><td style="vertical-align:top;">:</td><td><div><table><tr><td style="font-weight:bold;vertical-align:top;">session_id_admin</td><td style="vertical-align:top;">:</td><td><div>127.0.0.1-a41e8162-fd24-425e-813e-3817decca684<table><tr><td style="font-weight:bold;vertical-align:top;">comment</td><td style="vertical-align:top;">:</td><td><div></div></td></tr><tr><td style="font-weight:bold;vertical-align:top;">domain</td><td style="vertical-align:top;">:</td><td><div></div></td></tr><tr><td style="font-weight:bold;vertical-align:top;">expires</td><td style="vertical-align:top;">:</td><td><div></div></td></tr><tr><td style="font-weight:bold;vertical-align:top;">httponly</td><td style="vertical-align:top;">:</td><td><div></div></td></tr><tr><td style="font-weight:bold;vertical-align:top;">max-age</td><td style="vertical-align:top;">:</td><td><div></div></td></tr><tr><td style="font-weight:bold;vertical-align:top;">path</td><td style="vertical-align:top;">:</td><td><div></div></td></tr><tr><td style="font-weight:bold;vertical-align:top;">secure</td><td style="vertical-align:top;">:</td><td><div></div></td></tr><tr><td style="font-weight:bold;vertical-align:top;">version</td><td style="vertical-align:top;">:</td><td><div></div></td></tr></table></div></td></tr><tr><td style="font-weight:bold;vertical-align:top;">session_id_cup</td><td style="vertical-align:top;">:</td><td><div>127.0.0.1-da66b426-c977-468b-ab54-609954f15279<table><tr><td style="font-weight:bold;vertical-align:top;">comment</td><td style="vertical-align:top;">:</td><td><div></div></td></tr><tr><td style="font-weight:bold;vertical-align:top;">domain</td><td style="vertical-align:top;">:</td><td><div></div></td></tr><tr><td style="font-weight:bold;vertical-align:top;">expires</td><td style="vertical-align:top;">:</td><td><div></div></td></tr><tr><td style="font-weight:bold;vertical-align:top;">httponly</td><td style="vertical-align:top;">:</td><td><div></div></td></tr><tr><td style="font-weight:bold;vertical-align:top;">max-age</td><td style="vertical-align:top;">:</td><td><div></div></td></tr><tr><td style="font-weight:bold;vertical-align:top;">path</td><td style="vertical-align:top;">:</td><td><div></div></td></tr><tr><td style="font-weight:bold;vertical-align:top;">secure</td><td style="vertical-align:top;">:</td><td><div></div></td></tr><tr><td style="font-weight:bold;vertical-align:top;">version</td><td style="vertical-align:top;">:</td><td><div></div></td></tr></table></div></td></tr></table></div></td></tr><tr><td style="font-weight:bold;vertical-align:top;">env</td><td style="vertical-align:top;">:</td><td><div><table><tr><td style="font-weight:bold;vertical-align:top;">HTTP_ACCEPT</td><td style="vertical-align:top;">:</td><td><div>text/html, application/xhtml+xml, */*</div></td></tr><tr><td style="font-weight:bold;vertical-align:top;">HTTP_ACCEPT_ENCODING</td><td style="vertical-align:top;">:</td><td><div>gzip, deflate, peerdist</div></td></tr><tr><td style="font-weight:bold;vertical-align:top;">HTTP_ACCEPT_LANGUAGE</td><td style="vertical-align:top;">:</td><td><div>it-IT</div></td></tr><tr><td style="font-weight:bold;vertical-align:top;">HTTP_CONNECTION</td><td style="vertical-align:top;">:</td><td><div>Keep-Alive</div></td></tr><tr><td style="font-weight:bold;vertical-align:top;">HTTP_COOKIE</td><td style="vertical-align:top;">:</td><td><div>session_id_admin=127.0.0.1-a41e8162-fd24-425e-813e-3817decca684; session_id_cup=127.0.0.1-da66b426-c977-468b-ab54-609954f15279</div></td></tr><tr><td style="font-weight:bold;vertical-align:top;">HTTP_HOST</td><td style="vertical-align:top;">:</td><td><div>localhost:8080</div></td></tr><tr><td style="font-weight:bold;vertical-align:top;">HTTP_REFERER</td><td style="vertical-align:top;">:</td><td><div>http://localhost:8080/admin/site</div></td></tr><tr><td style="font-weight:bold;vertical-align:top;">HTTP_USER_AGENT</td><td style="vertical-align:top;">:</td><td><div>Mozilla/5.0 (Windows NT 6.3; WOW64; Trident/7.0; Touch; rv:11.0) like Gecko</div></td></tr><tr><td style="font-weight:bold;vertical-align:top;">HTTP_X_P2P_PEERDIST</td><td style="vertical-align:top;">:</td><td><div>Version=1.1</div></td></tr><tr><td style="font-weight:bold;vertical-align:top;">HTTP_X_P2P_PEERDISTEX</td><td style="vertical-align:top;">:</td><td><div>MinContentInformation=1.0, MaxContentInformation=2.0</div></td></tr><tr><td style="font-weight:bold;vertical-align:top;">PATH_INFO</td><td style="vertical-align:top;">:</td><td><div>/CUP</div></td></tr><tr><td style="font-weight:bold;vertical-align:top;">QUERY_STRING</td><td style="vertical-align:top;">:</td><td><div></div></td></tr><tr><td style="font-weight:bold;vertical-align:top;">REMOTE_ADDR</td><td style="vertical-align:top;">:</td><td><div>127.0.0.1</div></td></tr><tr><td style="font-weight:bold;vertical-align:top;">REMOTE_PORT</td><td style="vertical-align:top;">:</td><td><div>50384</div></td></tr><tr><td style="font-weight:bold;vertical-align:top;">REQUEST_METHOD</td><td style="vertical-align:top;">:</td><td><div>GET</div></td></tr><tr><td style="font-weight:bold;vertical-align:top;">SCRIPT_NAME</td><td style="vertical-align:top;">:</td><td><div></div></td></tr><tr><td style="font-weight:bold;vertical-align:top;">SERVER_NAME</td><td style="vertical-align:top;">:</td><td><div>DataScienceVM</div></td></tr><tr><td style="font-weight:bold;vertical-align:top;">SERVER_PORT</td><td style="vertical-align:top;">:</td><td><div>8080</div></td></tr><tr><td style="font-weight:bold;vertical-align:top;">SERVER_PROTOCOL</td><td style="vertical-align:top;">:</td><td><div>HTTP/1.1</div></td></tr><tr><td style="font-weight:bold;vertical-align:top;">SERVER_SOFTWARE</td><td style="vertical-align:top;">:</td><td><div>Rocket 1.2.6</div></td></tr><tr><td style="font-weight:bold;vertical-align:top;">app_folders</td><td style="vertical-align:top;">:</td><td><div>set([&#x27;C:\\\\Users\\\\Administrator.DATASCIENCEVM\\\\Dropbox\\\\______________myDevProjects\\\\myWebApps\\\\myWebApps\\\\web2py\\\\applications\\\\admin\\\\&#x27;, &#x27;C:\\\\Users\\\\Administrator.DATASCIENCEVM\\\\Dropbox\\\\______________myDevProjects\\\\myWebApps\\\\myWebApps\\\\web2py\\\\applications\\\\CUP\\\\&#x27;])</div></td></tr><tr><td style="font-weight:bold;vertical-align:top;">applications_parent</td><td style="vertical-align:top;">:</td><td><div>C:\\Users\\Administrator.DATASCIENCEVM\\Dropbox\\______________myDevProjects\\myWebApps\\myWebApps\\web2py</div></td></tr><tr><td style="font-weight:bold;vertical-align:top;">cmd_args</td><td style="vertical-align:top;">:</td><td><div><table></table></div></td></tr><tr><td style="font-weight:bold;vertical-align:top;">cmd_options</td><td style="vertical-align:top;">:</td><td><div>&lt;Values at 0x3a19408: {&#x27;verbose&#x27;: False, &#x27;ip&#x27;: &#x27;localhost&#x27;, &#x27;debuglevel&#x27;: 30, &#x27;with_scheduler&#x27;: False, &#x27;ips&#x27;: [&#x27;192.168.1.100&#x27;, &#x27;fe80::4c2:1e42:fd13:5738%15&#x27;, &#x27;fe80::244b:ba1:e8b9:363d%12&#x27;, &#x27;2001:0:5ef5:79fd:4c2:1e42:fd13:5738&#x27;], &#x27;shutdown_timeout&#x27;: 5, &#x27;taskbar&#x27;: False, &#x27;with_coverage&#x27;: False, &#x27;scheduler_groups&#x27;: None, &#x27;port&#x27;: 8080, &#x27;maxthreads&#x27;: None, &#x27;softcron&#x27;: False, &#x27;server_name&#x27;: &#x27;DataScienceVM&#x27;, &#x27;bpython&#x27;: False, &#x27;nogui&#x27;: False, &#x27;pid_filename&#x27;: &#x27;httpserver.pid&#x27;, &#x27;print_errors&#x27;: False, &#x27;extcron&#x27;: False, &#x27;runcron&#x27;: False, &#x27;run_system_tests&#x27;: False, &#x27;test&#x27;: None, &#x27;folder&#x27;: &#x27;C:\\\\Users\\\\Administrator.DATASCIENCEVM\\\\Dropbox\\\\______________myDevProjects\\\\myWebApps\\\\myWebApps\\\\web2py&#x27;, &#x27;config&#x27;: &#x27;&#x27;, &#x27;minthreads&#x27;: None, &#x27;shell&#x27;: None, &#x27;run&#x27;: &#x27;&#x27;, &#x27;log_filename&#x27;: &#x27;httpserver.log&#x27;, &#x27;profiler_dir&#x27;: None, &#x27;args&#x27;: [&#x27;&#x27;], &#x27;socket_timeout&#x27;: 5, &#x27;ssl_ca_certificate&#x27;: None, &#x27;scheduler&#x27;: None, &#x27;interfaces&#x27;: None, &#x27;ssl_private_key&#x27;: &#x27;&#x27;, &#x27;gae&#x27;: None, &#x27;password&#x27;: &#x27;1234&#x27;, &#x27;request_queue_size&#x27;: 5, &#x27;ssl_certificate&#x27;: &#x27;&#x27;, &#x27;cronjob&#x27;: False, &#x27;numthreads&#x27;: None, &#x27;quiet&#x27;: False, &#x27;import_models&#x27;: False, &#x27;timeout&#x27;: 10, &#x27;plain&#x27;: False, &#x27;nobanner&#x27;: False}&gt;</div></td></tr><tr><td style="font-weight:bold;vertical-align:top;">db_sessions</td><td style="vertical-align:top;">:</td><td><div>set([])</div></td></tr><tr><td style="font-weight:bold;vertical-align:top;">debugging</td><td style="vertical-align:top;">:</td><td><div>False</div></td></tr><tr><td style="font-weight:bold;vertical-align:top;">gluon_parent</td><td style="vertical-align:top;">:</td><td><div>C:\\Users\\Administrator.DATASCIENCEVM\\Dropbox\\______________myDevProjects\\myWebApps\\myWebApps\\web2py</div></td></tr><tr><td style="font-weight:bold;vertical-align:top;">http_accept</td><td style="vertical-align:top;">:</td><td><div>text/html, application/xhtml+xml, */*</div></td></tr><tr><td style="font-weight:bold;vertical-align:top;">http_accept_encoding</td><td style="vertical-align:top;">:</td><td><div>gzip, deflate, peerdist</div></td></tr><tr><td style="font-weight:bold;vertical-align:top;">http_accept_language</td><td style="vertical-align:top;">:</td><td><div>it-IT</div></td></tr><tr><td style="font-weight:bold;vertical-align:top;">http_connection</td><td style="vertical-align:top;">:</td><td><div>Keep-Alive</div></td></tr><tr><td style="font-weight:bold;vertical-align:top;">http_cookie</td><td style="vertical-align:top;">:</td><td><div>session_id_admin=127.0.0.1-a41e8162-fd24-425e-813e-3817decca684; session_id_cup=127.0.0.1-da66b426-c977-468b-ab54-609954f15279</div></td></tr><tr><td style="font-weight:bold;vertical-align:top;">http_host</td><td style="vertical-align:top;">:</td><td><div>localhost:8080</div></td></tr><tr><td style="font-weight:bold;vertical-align:top;">http_referer</td><td style="vertical-align:top;">:</td><td><div>http://localhost:8080/admin/site</div></td></tr><tr><td style="font-weight:bold;vertical-align:top;">http_user_agent</td><td style="vertical-align:top;">:</td><td><div>Mozilla/5.0 (Windows NT 6.3; WOW64; Trident/7.0; Touch; rv:11.0) like Gecko</div></td></tr><tr><td style="font-weight:bold;vertical-align:top;">http_x_p2p_peerdist</td><td style="vertical-align:top;">:</td><td><div>Version=1.1</div></td></tr><tr><td style="font-weight:bold;vertical-align:top;">http_x_p2p_peerdistex</td><td style="vertical-align:top;">:</td><td><div>MinContentInformation=1.0, MaxContentInformation=2.0</div></td></tr><tr><td style="font-weight:bold;vertical-align:top;">is_jython</td><td style="vertical-align:top;">:</td><td><div>False</div></td></tr><tr><td style="font-weight:bold;vertical-align:top;">is_pypy</td><td style="vertical-align:top;">:</td><td><div>False</div></td></tr><tr><td style="font-weight:bold;vertical-align:top;">is_source</td><td style="vertical-align:top;">:</td><td><div>True</div></td></tr><tr><td style="font-weight:bold;vertical-align:top;">local_hosts</td><td style="vertical-align:top;">:</td><td><div><table><tr><td><div>DataScienceVM.SOS-NHS.local</div></td></tr><tr><td><div>192.168.1.100</div></td></tr><tr><td><div>::ffff:127.0.0.1</div></td></tr><tr><td><div>::1</div></td></tr><tr><td><div>2001:0:5ef5:79fd:4c2:1e42:fd13:5738</div></td></tr><tr><td><div>fe80::4c2:1e42:fd13:5738%15</div></td></tr><tr><td><div>fe80::244b:ba1:e8b9:363d%12</div></td></tr><tr><td><div>DataScienceVM</div></td></tr><tr><td><div>127.0.0.1</div></td></tr></table></div></td></tr><tr><td style="font-weight:bold;vertical-align:top;">path_info</td><td style="vertical-align:top;">:</td><td><div>/CUP</div></td></tr><tr><td style="font-weight:bold;vertical-align:top;">query_string</td><td style="vertical-align:top;">:</td><td><div></div></td></tr><tr><td style="font-weight:bold;vertical-align:top;">remote_addr</td><td style="vertical-align:top;">:</td><td><div>127.0.0.1</div></td></tr><tr><td style="font-weight:bold;vertical-align:top;">remote_port</td><td style="vertical-align:top;">:</td><td><div>50384</div></td></tr><tr><td style="font-weight:bold;vertical-align:top;">request_method</td><td style="vertical-align:top;">:</td><td><div>GET</div></td></tr><tr><td style="font-weight:bold;vertical-align:top;">request_uri</td><td style="vertical-align:top;">:</td><td><div>/CUP/default/index</div></td></tr><tr><td style="font-weight:bold;vertical-align:top;">script_name</td><td style="vertical-align:top;">:</td><td><div></div></td></tr><tr><td style="font-weight:bold;vertical-align:top;">server_name</td><td style="vertical-align:top;">:</td><td><div>DataScienceVM</div></td></tr><tr><td style="font-weight:bold;vertical-align:top;">server_port</td><td style="vertical-align:top;">:</td><td><div>8080</div></td></tr><tr><td style="font-weight:bold;vertical-align:top;">server_protocol</td><td style="vertical-align:top;">:</td><td><div>HTTP/1.1</div></td></tr><tr><td style="font-weight:bold;vertical-align:top;">server_software</td><td style="vertical-align:top;">:</td><td><div>Rocket 1.2.6</div></td></tr><tr><td style="font-weight:bold;vertical-align:top;">web2py_original_uri</td><td style="vertical-align:top;">:</td><td><div>/CUP</div></td></tr><tr><td style="font-weight:bold;vertical-align:top;">web2py_path</td><td style="vertical-align:top;">:</td><td><div>C:\\Users\\Administrator.DATASCIENCEVM\\Dropbox\\______________myDevProjects\\myWebApps\\myWebApps\\web2py</div></td></tr><tr><td style="font-weight:bold;vertical-align:top;">web2py_version</td><td style="vertical-align:top;">:</td><td><div>2.13.4-stable+timestamp.2015.12.26.04.59.39</div></td></tr><tr><td style="font-weight:bold;vertical-align:top;">wsgi.errors</td><td style="vertical-align:top;">:</td><td><div>&lt;visualstudio_py_debugger._DebuggerOutput object at 0x0000000002903BA8&gt;</div></td></tr><tr><td style="font-weight:bold;vertical-align:top;">wsgi.file_wrapper</td><td style="vertical-align:top;">:</td><td><div>&lt;class wsgiref.util.FileWrapper at 0x0000000003997A08&gt;</div></td></tr><tr><td style="font-weight:bold;vertical-align:top;">wsgi.input</td><td style="vertical-align:top;">:</td><td><div>&lt;socket._fileobject object at 0x0000000003D94B88&gt;</div></td></tr><tr><td style="font-weight:bold;vertical-align:top;">wsgi.multiprocess</td><td style="vertical-align:top;">:</td><td><div>False</div></td></tr><tr><td style="font-weight:bold;vertical-align:top;">wsgi.multithread</td><td style="vertical-align:top;">:</td><td><div>True</div></td></tr><tr><td style="font-weight:bold;vertical-align:top;">wsgi.run_once</td><td style="vertical-align:top;">:</td><td><div>False</div></td></tr><tr><td style="font-weight:bold;vertical-align:top;">wsgi.url_scheme</td><td style="vertical-align:top;">:</td><td><div>http</div></td></tr><tr><td style="font-weight:bold;vertical-align:top;">wsgi.version</td><td style="vertical-align:top;">:</td><td><div><table><tr><td><div>1</div></td></tr><tr><td><div>0</div></td></tr></table></div></td></tr><tr><td style="font-weight:bold;vertical-align:top;">wsgi_errors</td><td style="vertical-align:top;">:</td><td><div>&lt;visualstudio_py_debugger._DebuggerOutput object at 0x0000000002903BA8&gt;</div></td></tr><tr><td style="font-weight:bold;vertical-align:top;">wsgi_file_wrapper</td><td style="vertical-align:top;">:</td><td><div>&lt;class wsgiref.util.FileWrapper at 0x0000000003997A08&gt;</div></td></tr><tr><td style="font-weight:bold;vertical-align:top;">wsgi_input</td><td style="vertical-align:top;">:</td><td><div>&lt;socket._fileobject object at 0x0000000003D94B88&gt;</div></td></tr><tr><td style="font-weight:bold;vertical-align:top;">wsgi_multiprocess</td><td style="vertical-align:top;">:</td><td><div>False</div></td></tr><tr><td style="font-weight:bold;vertical-align:top;">wsgi_multithread</td><td style="vertical-align:top;">:</td><td><div>True</div></td></tr><tr><td style="font-weight:bold;vertical-align:top;">wsgi_run_once</td><td style="vertical-align:top;">:</td><td><div>False</div></td></tr><tr><td style="font-weight:bold;vertical-align:top;">wsgi_url_scheme</td><td style="vertical-align:top;">:</td><td><div>http</div></td></tr><tr><td style="font-weight:bold;vertical-align:top;">wsgi_version</td><td style="vertical-align:top;">:</td><td><div><table><tr><td><div>1</div></td></tr><tr><td><div>0</div></td></tr></table></div></td></tr></table></div></td></tr><tr><td style="font-weight:bold;vertical-align:top;">extension</td><td style="vertical-align:top;">:</td><td><div>html</div></td></tr><tr><td style="font-weight:bold;vertical-align:top;">folder</td><td style="vertical-align:top;">:</td><td><div>C:\\Users\\Administrator.DATASCIENCEVM\\Dropbox\\______________myDevProjects\\myWebApps\\myWebApps\\web2py\\applications\\CUP\\</div></td></tr><tr><td style="font-weight:bold;vertical-align:top;">function</td><td style="vertical-align:top;">:</td><td><div>index</div></td></tr><tr><td style="font-weight:bold;vertical-align:top;">global_settings</td><td style="vertical-align:top;">:</td><td><div><table><tr><td style="font-weight:bold;vertical-align:top;">app_folders</td><td style="vertical-align:top;">:</td><td><div>set([&#x27;C:\\\\Users\\\\Administrator.DATASCIENCEVM\\\\Dropbox\\\\______________myDevProjects\\\\myWebApps\\\\myWebApps\\\\web2py\\\\applications\\\\admin\\\\&#x27;, &#x27;C:\\\\Users\\\\Administrator.DATASCIENCEVM\\\\Dropbox\\\\______________myDevProjects\\\\myWebApps\\\\myWebApps\\\\web2py\\\\applications\\\\CUP\\\\&#x27;])</div></td></tr><tr><td style="font-weight:bold;vertical-align:top;">applications_parent</td><td style="vertical-align:top;">:</td><td><div>C:\\Users\\Administrator.DATASCIENCEVM\\Dropbox\\______________myDevProjects\\myWebApps\\myWebApps\\web2py</div></td></tr><tr><td style="font-weight:bold;vertical-align:top;">cmd_args</td><td style="vertical-align:top;">:</td><td><div><table></table></div></td></tr><tr><td style="font-weight:bold;vertical-align:top;">cmd_options</td><td style="vertical-align:top;">:</td><td><div>&lt;Values at 0x3a19408: {&#x27;verbose&#x27;: False, &#x27;ip&#x27;: &#x27;localhost&#x27;, &#x27;debuglevel&#x27;: 30, &#x27;with_scheduler&#x27;: False, &#x27;ips&#x27;: [&#x27;192.168.1.100&#x27;, &#x27;fe80::4c2:1e42:fd13:5738%15&#x27;, &#x27;fe80::244b:ba1:e8b9:363d%12&#x27;, &#x27;2001:0:5ef5:79fd:4c2:1e42:fd13:5738&#x27;], &#x27;shutdown_timeout&#x27;: 5, &#x27;taskbar&#x27;: False, &#x27;with_coverage&#x27;: False, &#x27;scheduler_groups&#x27;: None, &#x27;port&#x27;: 8080, &#x27;maxthreads&#x27;: None, &#x27;softcron&#x27;: False, &#x27;server_name&#x27;: &#x27;DataScienceVM&#x27;, &#x27;bpython&#x27;: False, &#x27;nogui&#x27;: False, &#x27;pid_filename&#x27;: &#x27;httpserver.pid&#x27;, &#x27;print_errors&#x27;: False, &#x27;extcron&#x27;: False, &#x27;runcron&#x27;: False, &#x27;run_system_tests&#x27;: False, &#x27;test&#x27;: None, &#x27;folder&#x27;: &#x27;C:\\\\Users\\\\Administrator.DATASCIENCEVM\\\\Dropbox\\\\______________myDevProjects\\\\myWebApps\\\\myWebApps\\\\web2py&#x27;, &#x27;config&#x27;: &#x27;&#x27;, &#x27;minthreads&#x27;: None, &#x27;shell&#x27;: None, &#x27;run&#x27;: &#x27;&#x27;, &#x27;log_filename&#x27;: &#x27;httpserver.log&#x27;, &#x27;profiler_dir&#x27;: None, &#x27;args&#x27;: [&#x27;&#x27;], &#x27;socket_timeout&#x27;: 5, &#x27;ssl_ca_certificate&#x27;: None, &#x27;scheduler&#x27;: None, &#x27;interfaces&#x27;: None, &#x27;ssl_private_key&#x27;: &#x27;&#x27;, &#x27;gae&#x27;: None, &#x27;password&#x27;: &#x27;1234&#x27;, &#x27;request_queue_size&#x27;: 5, &#x27;ssl_certificate&#x27;: &#x27;&#x27;, &#x27;cronjob&#x27;: False, &#x27;numthreads&#x27;: None, &#x27;quiet&#x27;: False, &#x27;import_models&#x27;: False, &#x27;timeout&#x27;: 10, &#x27;plain&#x27;: False, &#x27;nobanner&#x27;: False}&gt;</div></td></tr><tr><td style="font-weight:bold;vertical-align:top;">db_sessions</td><td style="vertical-align:top;">:</td><td><div>set([])</div></td></tr><tr><td style="font-weight:bold;vertical-align:top;">debugging</td><td style="vertical-align:top;">:</td><td><div>False</div></td></tr><tr><td style="font-weight:bold;vertical-align:top;">gluon_parent</td><td style="vertical-align:top;">:</td><td><div>C:\\Users\\Administrator.DATASCIENCEVM\\Dropbox\\______________myDevProjects\\myWebApps\\myWebApps\\web2py</div></td></tr><tr><td style="font-weight:bold;vertical-align:top;">is_jython</td><td style="vertical-align:top;">:</td><td><div>False</div></td></tr><tr><td style="font-weight:bold;vertical-align:top;">is_pypy</td><td style="vertical-align:top;">:</td><td><div>False</div></td></tr><tr><td style="font-weight:bold;vertical-align:top;">is_source</td><td style="vertical-align:top;">:</td><td><div>True</div></td></tr><tr><td style="font-weight:bold;vertical-align:top;">local_hosts</td><td style="vertical-align:top;">:</td><td><div><table><tr><td><div>DataScienceVM.SOS-NHS.local</div></td></tr><tr><td><div>192.168.1.100</div></td></tr><tr><td><div>::ffff:127.0.0.1</div></td></tr><tr><td><div>::1</div></td></tr><tr><td><div>2001:0:5ef5:79fd:4c2:1e42:fd13:5738</div></td></tr><tr><td><div>fe80::4c2:1e42:fd13:5738%15</div></td></tr><tr><td><div>fe80::244b:ba1:e8b9:363d%12</div></td></tr><tr><td><div>DataScienceVM</div></td></tr><tr><td><div>127.0.0.1</div></td></tr></table></div></td></tr><tr><td style="font-weight:bold;vertical-align:top;">web2py_version</td><td style="vertical-align:top;">:</td><td><div>2.13.4-stable+timestamp.2015.12.26.04.59.39</div></td></tr></table></div></td></tr><tr><td style="font-weight:bold;vertical-align:top;">is_https</td><td style="vertical-align:top;">:</td><td><div>False</div></td></tr><tr><td style="font-weight:bold;vertical-align:top;">is_local</td><td style="vertical-align:top;">:</td><td><div>True</div></td></tr><tr><td style="font-weight:bold;vertical-align:top;">is_restful</td><td style="vertical-align:top;">:</td><td><div>False</div></td></tr><tr><td style="font-weight:bold;vertical-align:top;">is_scheduler</td><td style="vertical-align:top;">:</td><td><div>False</div></td></tr><tr><td style="font-weight:bold;vertical-align:top;">is_shell</td><td style="vertical-align:top;">:</td><td><div>False</div></td></tr><tr><td style="font-weight:bold;vertical-align:top;">now</td><td style="vertical-align:top;">:</td><td><div>datetime.datetime(2016, 3, 19, 20, 18, 27, 371000)</div></td></tr><tr><td style="font-weight:bold;vertical-align:top;">url</td><td style="vertical-align:top;">:</td><td><div>/CUP</div></td></tr><tr><td style="font-weight:bold;vertical-align:top;">utcnow</td><td style="vertical-align:top;">:</td><td><div>datetime.datetime(2016, 3, 19, 19, 18, 27, 371000)</div></td></tr><tr><td style="font-weight:bold;vertical-align:top;">wsgi</td><td style="vertical-align:top;">:</td><td><div>&lt;gluon.main.LazyWSGI object at 0x000000000401E7B8&gt;</div></td></tr></table></div>'
tRp58
sS'frames'
p59
(lp60
(dp61
S'file'
p62
S'C:\\Users\\Administrator.DATASCIENCEVM\\Dropbox\\______________myDevProjects\\myWebApps\\myWebApps\\web2py\\gluon\\restricted.py'
p63
sS'dump'
p64
(dp65
S'environment'
p66
S"{'A': <class 'gluon.html.A'>, 'ANY_OF': <class 'gluon.validators.ANY_OF'>, 'ASSIGNJS': <function ASSIGNJS>, 'AppConfig': <function AppConfig>, 'Auth': <class 'gluon.tools.Auth'>, 'B': <class 'gluon.html.B'>, 'BEAUTIFY': <class 'gluon.html.BEAUTIFY'>, 'BODY': <class 'gluon.html.BODY'>, 'BR': <class 'gluon.html.BR'>, 'BUTTON': <class 'gluon.html.BUTTON'>, ...}"
p67
sS'ccode'
p68
S'<code object <module> at 0000000003F6B230, file ...s\\web2py\\applications\\CUP\\models\\db.py", line 13>'
p69
ssS'lnum'
p70
I227
sS'lines'
p71
(dp72
I224
S'            ccode = code'
p73
sI225
S'        else:'
p74
sI226
S'            ccode = compile2(code, layer)'
p75
sI227
S'        exec ccode in environment'
p76
sI228
S'    except HTTP:'
p77
sI229
S'        raise'
p78
sI230
S'    except RestrictedError:'
p79
sI231
S'        # do not encapsulate (obfuscate) the original RestrictedError'
p80
sI222
S'    try:'
p81
sI223
S'        if isinstance(code, types.CodeType):'
p82
ssS'call'
p83
S"(code='# -*- coding: utf-8 -*-\\n\\n#######################...able auditing\\n# auth.enable_record_versioning(db)', environment={'A': <class 'gluon.html.A'>, 'ANY_OF': <class 'gluon.validators.ANY_OF'>, 'ASSIGNJS': <function ASSIGNJS>, 'AppConfig': <function AppConfig>, 'Auth': <class 'gluon.tools.Auth'>, 'B': <class 'gluon.html.B'>, 'BEAUTIFY': <class 'gluon.html.BEAUTIFY'>, 'BODY': <class 'gluon.html.BODY'>, 'BR': <class 'gluon.html.BR'>, 'BUTTON': <class 'gluon.html.BUTTON'>, ...}, layer=r'C:\\Users\\Administrator.DATASCIENCEVM\\Dropbox\\___...ps\\myWebApps\\web2py\\applications\\CUP\\models\\db.py')"
p84
sS'func'
p85
S'restricted'
p86
sa(dp87
g62
S'C:\\Users\\Administrator.DATASCIENCEVM\\Dropbox\\______________myDevProjects\\myWebApps\\myWebApps\\web2py\\applications\\CUP\\models\\db.py'
p88
sg64
(dp89
S'auth'
p90
S'<gluon.tools.Auth object>'
p91
sS'auth.enable_record_versioning'
p92
S'<bound method Auth.enable_record_versioning of <gluon.tools.Auth object>>'
p93
ssg70
I103
sg71
(dp94
I98
S"mostraCodiceNome=' %(codice)s %(nome)s'"
p95
sI99
S''
sI100
S'#schema DB creato a partire da (ma non identico a) schema ER del 16/03/2016'
p96
sI101
S''
sI102
S'#abilito il versioning del db'
p97
sI103
S'auth.enable_record_versioning()'
p98
sI104
S''
sI105
S'#campi comuni a tutte le tabelle'
p99
sI106
S'db._common_fields.append(auth.signature)'
p100
sI107
S''
ssg83
S'()'
p101
sg85
S'<module>'
p102
sasS'pyver'
p103
S'Python 2.7.11: C:\\Python27\\python.exe (prefix: C:\\Python27)'
p104
sS'session'
p105
g57
(S's\x81\t\x00\x00<div><table><tr><td style="font-weight:bold;vertical-align:top;">auth</td><td style="vertical-align:top;">:</td><td><div><table><tr><td style="font-weight:bold;vertical-align:top;">expiration</td><td style="vertical-align:top;">:</td><td><div>3600</div></td></tr><tr><td style="font-weight:bold;vertical-align:top;">hmac_key</td><td style="vertical-align:top;">:</td><td><div>c50b1952-d1cc-472c-a081-68187caf68ab</div></td></tr><tr><td style="font-weight:bold;vertical-align:top;">last_visit</td><td style="vertical-align:top;">:</td><td><div>datetime.datetime(2016, 3, 19, 20, 15, 1, 708000)</div></td></tr><tr><td style="font-weight:bold;vertical-align:top;">user</td><td style="vertical-align:top;">:</td><td><div><table><tr><td style="font-weight:bold;vertical-align:top;">email</td><td style="vertical-align:top;">:</td><td><div>luca.paulon@gmail.com</div></td></tr><tr><td style="font-weight:bold;vertical-align:top;">first_name</td><td style="vertical-align:top;">:</td><td><div>Luca</div></td></tr><tr><td style="font-weight:bold;vertical-align:top;">id</td><td style="vertical-align:top;">:</td><td><div>1L</div></td></tr><tr><td style="font-weight:bold;vertical-align:top;">last_name</td><td style="vertical-align:top;">:</td><td><div>Paulon</div></td></tr><tr><td style="font-weight:bold;vertical-align:top;">registration_id</td><td style="vertical-align:top;">:</td><td><div></div></td></tr><tr><td style="font-weight:bold;vertical-align:top;">registration_key</td><td style="vertical-align:top;">:</td><td><div></div></td></tr><tr><td style="font-weight:bold;vertical-align:top;">reset_password_key</td><td style="vertical-align:top;">:</td><td><div></div></td></tr></table></div></td></tr><tr><td style="font-weight:bold;vertical-align:top;">user_groups</td><td style="vertical-align:top;">:</td><td><div><table><tr><td style="font-weight:bold;vertical-align:top;">1</td><td style="vertical-align:top;">:</td><td><div>user_1</div></td></tr></table></div></td></tr></table></div></td></tr><tr><td style="font-weight:bold;vertical-align:top;">flash</td><td style="vertical-align:top;">:</td><td><div>None</div></td></tr><tr><td style="font-weight:bold;vertical-align:top;">last_orderby</td><td style="vertical-align:top;">:</td><td><div>None</div></td></tr><tr><td style="font-weight:bold;vertical-align:top;">last_query</td><td style="vertical-align:top;">:</td><td><div>db.Servizio.id&gt;0</div></td></tr></table></div>'
tRp106
sS'etype'
p107
S"<type 'exceptions.TypeError'>"
p108
sS'date'
p109
S'Sat Mar 19 20:18:27 2016'
p110
sS'response'
p111
g57
(S's\x90\x18\x00\x00<div><table><tr><td style="font-weight:bold;vertical-align:top;">body</td><td style="vertical-align:top;">:</td><td><div>&lt;cStringIO.StringO object at 0x0000000007411E68&gt;</div></td></tr><tr><td style="font-weight:bold;vertical-align:top;">cookies</td><td style="vertical-align:top;">:</td><td><div><table><tr><td style="font-weight:bold;vertical-align:top;">session_id_cup</td><td style="vertical-align:top;">:</td><td><div>127.0.0.1-da66b426-c977-468b-ab54-609954f15279<table><tr><td style="font-weight:bold;vertical-align:top;">comment</td><td style="vertical-align:top;">:</td><td><div></div></td></tr><tr><td style="font-weight:bold;vertical-align:top;">domain</td><td style="vertical-align:top;">:</td><td><div></div></td></tr><tr><td style="font-weight:bold;vertical-align:top;">expires</td><td style="vertical-align:top;">:</td><td><div></div></td></tr><tr><td style="font-weight:bold;vertical-align:top;">httponly</td><td style="vertical-align:top;">:</td><td><div></div></td></tr><tr><td style="font-weight:bold;vertical-align:top;">max-age</td><td style="vertical-align:top;">:</td><td><div></div></td></tr><tr><td style="font-weight:bold;vertical-align:top;">path</td><td style="vertical-align:top;">:</td><td><div>/</div></td></tr><tr><td style="font-weight:bold;vertical-align:top;">secure</td><td style="vertical-align:top;">:</td><td><div></div></td></tr><tr><td style="font-weight:bold;vertical-align:top;">version</td><td style="vertical-align:top;">:</td><td><div></div></td></tr></table></div></td></tr></table></div></td></tr><tr><td style="font-weight:bold;vertical-align:top;">delimiters</td><td style="vertical-align:top;">:</td><td><div><table><tr><td><div>{{</div></td></tr><tr><td><div>}}</div></td></tr></table></div></td></tr><tr><td style="font-weight:bold;vertical-align:top;">files</td><td style="vertical-align:top;">:</td><td><div><table></table></div></td></tr><tr><td style="font-weight:bold;vertical-align:top;">flash</td><td style="vertical-align:top;">:</td><td><div></div></td></tr><tr><td style="font-weight:bold;vertical-align:top;">form_label_separator</td><td style="vertical-align:top;">:</td><td><div></div></td></tr><tr><td style="font-weight:bold;vertical-align:top;">formstyle</td><td style="vertical-align:top;">:</td><td><div>bootstrap3_inline</div></td></tr><tr><td style="font-weight:bold;vertical-align:top;">generic_patterns</td><td style="vertical-align:top;">:</td><td><div><table><tr><td><div>*</div></td></tr></table></div></td></tr><tr><td style="font-weight:bold;vertical-align:top;">headers</td><td style="vertical-align:top;">:</td><td><div><table><tr><td style="font-weight:bold;vertical-align:top;">X-Powered-By</td><td style="vertical-align:top;">:</td><td><div>web2py</div></td></tr></table></div></td></tr><tr><td style="font-weight:bold;vertical-align:top;">menu</td><td style="vertical-align:top;">:</td><td><div><table></table></div></td></tr><tr><td style="font-weight:bold;vertical-align:top;">meta</td><td style="vertical-align:top;">:</td><td><div><table></table></div></td></tr><tr><td style="font-weight:bold;vertical-align:top;">models_to_run</td><td style="vertical-align:top;">:</td><td><div><table><tr><td><div>^\\w+\\.py$</div></td></tr><tr><td><div>^default/\\w+\\.py$</div></td></tr><tr><td><div>^default/index/\\w+\\.py$</div></td></tr></table></div></td></tr><tr><td style="font-weight:bold;vertical-align:top;">postprocessing</td><td style="vertical-align:top;">:</td><td><div><table></table></div></td></tr><tr><td style="font-weight:bold;vertical-align:top;">session_client</td><td style="vertical-align:top;">:</td><td><div>127.0.0.1</div></td></tr><tr><td style="font-weight:bold;vertical-align:top;">session_cookie_compression_level</td><td style="vertical-align:top;">:</td><td><div>None</div></td></tr><tr><td style="font-weight:bold;vertical-align:top;">session_cookie_expires</td><td style="vertical-align:top;">:</td><td><div>None</div></td></tr><tr><td style="font-weight:bold;vertical-align:top;">session_cookie_key</td><td style="vertical-align:top;">:</td><td><div>None</div></td></tr><tr><td style="font-weight:bold;vertical-align:top;">session_data_name</td><td style="vertical-align:top;">:</td><td><div>session_data_cup</div></td></tr><tr><td style="font-weight:bold;vertical-align:top;">session_file</td><td style="vertical-align:top;">:</td><td><div>&lt;open file &#x27;C:\\\\Users\\\\Administrator.DATASCIENCEVM\\\\Dropbox\\\\______________myDevProjects\\\\myWebApps\\\\myWebApps\\\\web2py\\\\applications\\\\CUP\\\\sessions\\\\0cc\\\\19e\\\\127.0.0.1-da66b426-c977-468b-ab54-609954f15279&#x27;, mode &#x27;rb+&#x27; at 0x0000000006C86A50&gt;</div></td></tr><tr><td style="font-weight:bold;vertical-align:top;">session_filename</td><td style="vertical-align:top;">:</td><td><div>C:\\Users\\Administrator.DATASCIENCEVM\\Dropbox\\______________myDevProjects\\myWebApps\\myWebApps\\web2py\\applications\\CUP\\sessions\\127.0.0.1-da66b426-c977-468b-ab54-609954f15279</div></td></tr><tr><td style="font-weight:bold;vertical-align:top;">session_hash</td><td style="vertical-align:top;">:</td><td><div>de2e02a90a54ecacab32d71ac01a14fb</div></td></tr><tr><td style="font-weight:bold;vertical-align:top;">session_id</td><td style="vertical-align:top;">:</td><td><div>127.0.0.1-da66b426-c977-468b-ab54-609954f15279</div></td></tr><tr><td style="font-weight:bold;vertical-align:top;">session_id_name</td><td style="vertical-align:top;">:</td><td><div>session_id_cup</div></td></tr><tr><td style="font-weight:bold;vertical-align:top;">session_locked</td><td style="vertical-align:top;">:</td><td><div>True</div></td></tr><tr><td style="font-weight:bold;vertical-align:top;">session_masterapp</td><td style="vertical-align:top;">:</td><td><div>CUP</div></td></tr><tr><td style="font-weight:bold;vertical-align:top;">session_new</td><td style="vertical-align:top;">:</td><td><div>False</div></td></tr><tr><td style="font-weight:bold;vertical-align:top;">session_storage_type</td><td style="vertical-align:top;">:</td><td><div>file</div></td></tr><tr><td style="font-weight:bold;vertical-align:top;">status</td><td style="vertical-align:top;">:</td><td><div>200</div></td></tr><tr><td style="font-weight:bold;vertical-align:top;">view</td><td style="vertical-align:top;">:</td><td><div>default/index.html</div></td></tr></table></div>'
tRp112
sS'locals'
p113
(dp114
S'Service'
p115
S"<class 'gluon.tools.Service'>"
p116
sS'OBJECT'
p117
S"<class 'gluon.html.OBJECT'>"
p118
sS'SQLDB'
p119
S"<class 'pydal.base.DAL'>"
p120
sg105
S"<Storage {'_formkey[Categoria_servizio/create]':...errer_web2py_grid': '/CUP/crud/tabella_Cliente'}>"
p121
sS'LINK'
p122
S"<class 'gluon.html.LINK'>"
p123
sS'BR'
p124
S"<class 'gluon.html.BR'>"
p125
sS'local_import'
p126
S'<function <lambda>>'
p127
sS'OPTGROUP'
p128
S"<class 'gluon.html.OPTGROUP'>"
p129
sS'LI'
p130
S"<class 'gluon.html.LI'>"
p131
sS'PRE'
p132
S"<class 'gluon.html.PRE'>"
p133
sS'IS_INT_IN_RANGE'
p134
S"<class 'gluon.validators.IS_INT_IN_RANGE'>"
p135
sS'IS_LOWER'
p136
S"<class 'gluon.validators.IS_LOWER'>"
p137
sS'IS_STRONG'
p138
S"<class 'gluon.validators.IS_STRONG'>"
p139
sS'cache'
p140
S'<gluon.cache.Cache object>'
p141
sS'IS_IN_DB'
p142
S"<class 'gluon.validators.IS_IN_DB'>"
p143
sS'TAG'
p144
S'<gluon.html.__TAG__ object>'
p145
sS'SQLField'
p146
S"<class 'pydal.objects.Field'>"
p147
sS'mail'
p148
S'<gluon.tools.Mail object>'
p149
sS'BODY'
p150
S"<class 'gluon.html.BODY'>"
p151
sS'IS_DATE_IN_RANGE'
p152
S"<class 'gluon.validators.IS_DATE_IN_RANGE'>"
p153
sS'TH'
p154
S"<class 'gluon.html.TH'>"
p155
sS'URL'
p156
S'<function URL>'
p157
sS'__file__'
p158
S"r'C:\\Users\\Administrator.DATASCIENCEVM\\Dropbox\\___...ps\\myWebApps\\web2py\\applications\\CUP\\models\\db.py'"
p159
sS'db'
p160
S'<DAL uri="sqlite://storage.sqlite">'
p161
sS'auth'
p162
S'<gluon.tools.Auth object>'
p163
sS'P'
S"<class 'gluon.html.P'>"
p164
sS'TFOOT'
p165
S"<class 'gluon.html.TFOOT'>"
p166
sS'XHTML'
p167
S"<class 'gluon.html.XHTML'>"
p168
sS'ON'
p169
S'True'
p170
sS'OL'
p171
S"<class 'gluon.html.OL'>"
p172
sS'TEXTAREA'
p173
S"<class 'gluon.html.TEXTAREA'>"
p174
sS'MENU'
p175
S"<class 'gluon.html.MENU'>"
p176
sS'LOAD'
p177
S'<function LOAD>'
p178
sS'CODE'
p179
S"<class 'gluon.html.CODE'>"
p180
sS'HTTP'
p181
S"<class 'gluon.http.HTTP'>"
p182
sS'HR'
p183
S"<class 'gluon.html.HR'>"
p184
sS'IS_DATETIME'
p185
S"<class 'gluon.validators.IS_DATETIME'>"
p186
sS'HEAD'
p187
S"<class 'gluon.html.HEAD'>"
p188
sS'LABEL'
p189
S"<class 'gluon.html.LABEL'>"
p190
sS'META'
p191
S"<class 'gluon.html.META'>"
p192
sS'plugins'
p193
S'<gluon.tools.PluginManager object>'
p194
sS'SELECT'
p195
S"<class 'gluon.html.SELECT'>"
p196
sS'CENTER'
p197
S"<class 'gluon.html.CENTER'>"
p198
sS'Auth'
p199
S"<class 'gluon.tools.Auth'>"
p200
sS'__builtins__'
p201
S"{'ArithmeticError': <type 'exceptions.ArithmeticError'>, 'AssertionError': <type 'exceptions.AssertionError'>, 'AttributeError': <type 'exceptions.AttributeError'>, 'BaseException': <type 'exceptions.BaseException'>, 'BufferError': <type 'exceptions.BufferError'>, 'BytesWarning': <type 'exceptions.BytesWarning'>, 'DeprecationWarning': <type 'exceptions.DeprecationWarning'>, 'EOFError': <type 'exceptions.EOFError'>, 'Ellipsis': Ellipsis, 'EnvironmentError': <type 'exceptions.EnvironmentError'>, ...}"
p202
sS'HTML'
p203
S"<class 'gluon.html.HTML'>"
p204
sS'SQLFORM'
p205
S"<class 'gluon.sqlhtml.SQLFORM'>"
p206
sS'EM'
p207
S"<class 'gluon.html.EM'>"
p208
sS'redirect'
p209
S'<function redirect>'
p210
sS'FIELDSET'
p211
S"<class 'gluon.html.FIELDSET'>"
p212
sS'IS_EQUAL_TO'
p213
S"<class 'gluon.validators.IS_EQUAL_TO'>"
p214
sS'embed64'
p215
S'<function embed64>'
p216
sS'IS_LIST_OF'
p217
S"<class 'gluon.validators.IS_LIST_OF'>"
p218
sS'__name__'
p219
S"'__restricted__'"
p220
sS'EMBED'
p221
S"<class 'gluon.html.EMBED'>"
p222
sS'FORM'
p223
S"<class 'gluon.html.FORM'>"
p224
sS'CLEANUP'
p225
S"<class 'gluon.validators.CLEANUP'>"
p226
sS'myconf'
p227
S"{'forms': {'formstyle': 'bootstrap3_inline', 'se...'you@gmail.com', 'server': 'smtp.gmail.com:587'}}"
p228
sS'H2'
p229
S"<class 'gluon.html.H2'>"
p230
sS'H3'
p231
S"<class 'gluon.html.H3'>"
p232
sS'AppConfig'
p233
S'<function AppConfig>'
p234
sS'H1'
p235
S"<class 'gluon.html.H1'>"
p236
sS'H6'
p237
S"<class 'gluon.html.H6'>"
p238
sS'H4'
p239
S"<class 'gluon.html.H4'>"
p240
sS'H5'
p241
S"<class 'gluon.html.H5'>"
p242
sS'UL'
p243
S"<class 'gluon.html.UL'>"
p244
sS'IS_UPPER'
p245
S"<class 'gluon.validators.IS_UPPER'>"
p246
sS'xmlescape'
p247
S'<function xmlescape>'
p248
sS'IS_TIME'
p249
S"<class 'gluon.validators.IS_TIME'>"
p250
sS'OPTION'
p251
S"<class 'gluon.html.OPTION'>"
p252
sS'TITLE'
p253
S"<class 'gluon.html.TITLE'>"
p254
sS'CRYPT'
p255
S"<class 'gluon.validators.CRYPT'>"
p256
sS'IS_EMPTY_OR'
p257
S"<class 'gluon.validators.IS_EMPTY_OR'>"
p258
sS'MARKMIN'
p259
S"<class 'gluon.html.MARKMIN'>"
p260
sS'mostraCodiceNome'
p261
S"' %(codice)s %(nome)s'"
p262
sS'INPUT'
p263
S"<class 'gluon.html.INPUT'>"
p264
sS'STRONG'
p265
S"<class 'gluon.html.STRONG'>"
p266
sS'COL'
p267
S"<class 'gluon.html.COL'>"
p268
sS'service'
p269
S'<gluon.tools.Service object>'
p270
sS'SCRIPT'
p271
S"<class 'gluon.html.SCRIPT'>"
p272
sS'TABLE'
p273
S"<class 'gluon.html.TABLE'>"
p274
sS'IS_IPV4'
p275
S"<class 'gluon.validators.IS_IPV4'>"
p276
sS'IS_LENGTH'
p277
S"<class 'gluon.validators.IS_LENGTH'>"
p278
sS'IS_IPV6'
p279
S"<class 'gluon.validators.IS_IPV6'>"
p280
sS'XML'
p281
S"<class 'gluon.html.XML'>"
p282
sS'B'
S"<class 'gluon.html.B'>"
p283
sS'IMG'
p284
S"<class 'gluon.html.IMG'>"
p285
sS'SQLTABLE'
p286
S"<class 'gluon.sqlhtml.SQLTABLE'>"
p287
sS'IS_MATCH'
p288
S"<class 'gluon.validators.IS_MATCH'>"
p289
sS'IS_ALPHANUMERIC'
p290
S"<class 'gluon.validators.IS_ALPHANUMERIC'>"
p291
sS'SPAN'
p292
S"<class 'gluon.html.SPAN'>"
p293
sS'IS_JSON'
p294
S"<class 'gluon.validators.IS_JSON'>"
p295
sS'IS_IPADDRESS'
p296
S"<class 'gluon.validators.IS_IPADDRESS'>"
p297
sS'IS_SLUG'
p298
S"<class 'gluon.validators.IS_SLUG'>"
p299
sS'BEAUTIFY'
p300
S"<class 'gluon.html.BEAUTIFY'>"
p301
sS'BUTTON'
p302
S"<class 'gluon.html.BUTTON'>"
p303
sS'IS_DATE'
p304
S"<class 'gluon.validators.IS_DATE'>"
p305
sS'IS_EMAIL'
p306
S"<class 'gluon.validators.IS_EMAIL'>"
p307
sS'IS_NOT_EMPTY'
p308
S"<class 'gluon.validators.IS_NOT_EMPTY'>"
p309
sS'IS_FLOAT_IN_RANGE'
p310
S"<class 'gluon.validators.IS_FLOAT_IN_RANGE'>"
p311
sS'TBODY'
p312
S"<class 'gluon.html.TBODY'>"
p313
sS'CAT'
p314
S"<class 'gluon.html.CAT'>"
p315
sS'Field'
p316
S"<class 'pydal.objects.Field'>"
p317
sS'IS_LIST_OF_EMAILS'
p318
S"<class 'gluon.validators.IS_LIST_OF_EMAILS'>"
p319
sS'DIV'
p320
S"<class 'gluon.html.DIV'>"
p321
sS'LEGEND'
p322
S"<class 'gluon.html.LEGEND'>"
p323
sS'COLGROUP'
p324
S"<class 'gluon.html.COLGROUP'>"
p325
sS'DAL'
p326
S"<class 'pydal.base.DAL'>"
p327
sS'ASSIGNJS'
p328
S'<function ASSIGNJS>'
p329
sS'TR'
p330
S"<class 'gluon.html.TR'>"
p331
sS'__package__'
p332
S'None'
p333
sS'valoreNonDefinito'
p334
S"'000'"
p335
sS'IFRAME'
p336
S"<class 'gluon.html.IFRAME'>"
p337
sS'TD'
p338
S"<class 'gluon.html.TD'>"
p339
sS'PluginManager'
p340
S"<class 'gluon.tools.PluginManager'>"
p341
sS'IS_URL'
p342
S"<class 'gluon.validators.IS_URL'>"
p343
sS'A'
S"<class 'gluon.html.A'>"
p344
sS'STYLE'
p345
S"<class 'gluon.html.STYLE'>"
p346
sS'IS_DATETIME_IN_RANGE'
p347
S"<class 'gluon.validators.IS_DATETIME_IN_RANGE'>"
p348
sS'IS_IMAGE'
p349
S"<class 'gluon.validators.IS_IMAGE'>"
p350
sS'I'
S"<class 'gluon.html.I'>"
p351
sS'IS_NOT_IN_DB'
p352
S"<class 'gluon.validators.IS_NOT_IN_DB'>"
p353
sg111
S"<Storage {'body': <cStringIO.StringO object at 0...00000000041C0EB8>, 'view': 'default/index.html'}>"
p354
sS'THEAD'
p355
S"<class 'gluon.html.THEAD'>"
p356
sS'ANY_OF'
p357
S"<class 'gluon.validators.ANY_OF'>"
p358
sS'IS_NULL_OR'
p359
S"<class 'gluon.validators.IS_EMPTY_OR'>"
p360
sg56
S"<Storage {'_vars': None, 'function': 'index', 'c...ebApps\\\\myWebApps\\\\web2py\\\\applications\\\\CUP\\\\'}>"
p361
sS'IS_EXPR'
p362
S"<class 'gluon.validators.IS_EXPR'>"
p363
sS'IS_IN_SET'
p364
S"<class 'gluon.validators.IS_IN_SET'>"
p365
sS'IS_UPLOAD_FILENAME'
p366
S"<class 'gluon.validators.IS_UPLOAD_FILENAME'>"
p367
sS'IS_DECIMAL_IN_RANGE'
p368
S"<class 'gluon.validators.IS_DECIMAL_IN_RANGE'>"
p369
sS'TT'
p370
S"<class 'gluon.html.TT'>"
p371
sS'T'
S'<gluon.languages.translator object>'
p372
sssS'traceback'
p373
S'Traceback (most recent call last):\n  File "C:\\Users\\Administrator.DATASCIENCEVM\\Dropbox\\______________myDevProjects\\myWebApps\\myWebApps\\web2py\\gluon\\restricted.py", line 227, in restricted\n    exec ccode in environment\n  File "C:\\Users\\Administrator.DATASCIENCEVM\\Dropbox\\______________myDevProjects\\myWebApps\\myWebApps\\web2py\\applications\\CUP\\models\\db.py", line 103, in <module>\n    auth.enable_record_versioning()\nTypeError: enable_record_versioning() takes at least 2 arguments (1 given)\n'
p374
s.