(dp1
S'output'
p2
S"<type 'exceptions.AttributeError'> 'DAL' object has no attribute 'Presentazione'"
p3
sS'layer'
p4
S'C:\\Users\\Administrator.DATASCIENCEVM\\Dropbox\\______________myDevProjects\\myWebApps\\myWebApps\\web2py\\applications\\CUP\\models\\db.py'
p5
sS'code'
p6
S'# -*- coding: utf-8 -*-\n\n#########################################################################\n## This scaffolding model makes your app work on Google App Engine too\n## File is released under public domain and you can use without limitations\n#########################################################################\n\n## if SSL/HTTPS is properly configured and you want all HTTP requests to\n## be redirected to HTTPS, uncomment the line below:\n# request.requires_https()\n\n## app configuration made easy. Look inside private/appconfig.ini\nfrom gluon.contrib.appconfig import AppConfig\n## once in production, remove reload=True to gain full speed\nmyconf = AppConfig(reload=True)\n\n\nif not request.env.web2py_runtime_gae:\n    ## if NOT running on Google App Engine use SQLite or other DB\n    db = DAL(myconf.take(\'db.uri\'), pool_size=myconf.take(\'db.pool_size\', cast=int), check_reserved=[\'all\']) #qui potrei mettere migrate=False\nelse:\n    ## connect to Google BigTable (optional \'google:datastore://namespace\')\n    db = DAL(\'google:datastore+ndb\')\n    ## store sessions and tickets there\n    session.connect(request, response, db=db)\n    ## or store session in Memcache, Redis, etc.\n    ## from gluon.contrib.memdb import MEMDB\n    ## from google.appengine.api.memcache import Client\n    ## session.connect(request, response, db = MEMDB(Client()))\n\n## by default give a view/generic.extension to all actions from localhost\n## none otherwise. a pattern can be \'controller/function.extension\'\nresponse.generic_patterns = [\'*\'] if request.is_local else []\n## choose a style for forms\nresponse.formstyle = myconf.take(\'forms.formstyle\')  # or \'bootstrap3_stacked\' or \'bootstrap2\' or other\nresponse.form_label_separator = myconf.take(\'forms.separator\')\n\n\n## (optional) optimize handling of static files\n# response.optimize_css = \'concat,minify,inline\'\n# response.optimize_js = \'concat,minify,inline\'\n## (optional) static assets folder versioning\n# response.static_version = \'0.0.0\'\n#########################################################################\n## Here is sample code if you need for\n## - email capabilities\n## - authentication (registration, login, logout, ... )\n## - authorization (role based authorization)\n## - services (xml, csv, json, xmlrpc, jsonrpc, amf, rss)\n## - old style crud actions\n## (more options discussed in gluon/tools.py)\n#########################################################################\n\nfrom gluon.tools import Auth, Service, PluginManager\n\nservice = Service()\nplugins = PluginManager()\n\nauth = Auth(db)\n\n# campi comuni a tutte le tabelle\nimport uuid\nField_uuid = Field(\'uuid\', length=64, default=lambda:str(uuid.uuid4()))\nFields_signature = auth.signature\n\n\n#auth_tablenames =\'\'\'\n#    auth_cas\n#    auth_event\n#    auth_group\n#    auth_membership\n#    auth_permission\n#    auth_user\n#\'\'\'.split()\n\n## campi aggiuntivi si definiscono dopo auth = Auth(db)\n#for auth_tablename in auth_tablenames:\n#    auth.settings.extra_fields[auth_tablenames]=[Field_uuid]\n\n## e prima di auth.define_tables(...)\n\n## create all tables needed by auth if not custom tables\nauth.define_tables(username=False, signature=True)\n\n## configure email\nmail = auth.settings.mailer\nmail.settings.server = \'logging\' if request.is_local else myconf.take(\'smtp.server\')\nmail.settings.sender = myconf.take(\'smtp.sender\')\nmail.settings.login = myconf.take(\'smtp.login\')\n\n## configure auth policy\nauth.settings.registration_requires_verification = False\nauth.settings.registration_requires_approval = False\nauth.settings.reset_password_requires_verification = True\n\n#########################################################################\n## Define your tables below (or better in another model file) for example\n##\n## >>> db.define_table(\'mytable\',Field(\'myfield\',\'string\'))\n##\n## Fields can be \'string\',\'text\',\'password\',\'integer\',\'double\',\'boolean\'\n##       \'date\',\'time\',\'datetime\',\'blob\',\'upload\', \'reference TABLENAME\'\n## There is an implicit \'id integer autoincrement\' field\n## Consult manual for more options, validators, etc.\n##\n## More API examples for controllers:\n##\n## >>> db.mytable.insert(myfield=\'value\')\n## >>> rows=db(db.mytable.myfield==\'value\').select(db.mytable.ALL)\n## >>> for row in rows: print row.id, row.myfield\n#########################################################################\n\n# My application DB\n# WARNING: notnull=True, default=\'NULL\' is a contradition and generates a strange error after some lines !!!!\n# The following source code was generated by SQLDesigner and reordered to avoid missing reference (eg. Servizio must come before Categoria_servizio which refers to it)\n\n\n#mie variabili\nvaloreNonDefinito=None\nmostraCodiceNome=\' %(codice)s %(nome)s\'\n\n#schema DB creato a partire da (ma non identico a) schema ER del 16/03/2016\n\n#db._common_fields.append(Fields_signature) #anche se questa riga viene prima i campi vengono appesi dopo quelli definiti dopo\n#db._common_fields.append(Field_uuid) \n\n#tabelle e relazioni\ndb.define_table("Categoria_servizio",\n#   Field_uuid,\n#    Fields_signature,\n    Field("codice", "string", default=valoreNonDefinito,length=3),\n    Field("nome", "string", default=valoreNonDefinito))#,\n    #migrate=False)\n\ndb.define_table("Stato_prestazione",\n#   Field_uuid,\n#    Fields_signature,\n    Field("codice", "string", notnull=True, default=valoreNonDefinito, length=3),\n    Field("nome", "string", default=valoreNonDefinito))\n\n#db.define_table("Comune")\n#if db(db.Comune.id>0).isempty():\n#    db.Comune.import_from_csv_file(open(\'Comune.csv\',\'r\'))\ndb.auth_user\nAgente = db.Table(db,"Agente",\n#    Field_uuid,\n#    Fields_signature,\n    Field("id_auth_user", "reference auth_user"),\n    Field("codice", "string", default=valoreNonDefinito),\n    Field("nome", "string", default=valoreNonDefinito),\n    Field("cap", "string", default=\'00000\', length=5),\n    Field("via", "string", default=valoreNonDefinito),\n#    Field("id_Comune", "reference Comune"),\n    Field("descrizione", "text", default=valoreNonDefinito))\nAgente.id_auth_user.requires=IS_IN_DB( db, \'auth_user.id\', \' %(first_name)s %(last_name)s (%(email)s)\') \n#Agente.id_auth_user.requires=IS_IN_DB( db, \'comune.id\', \' %(Denominazione in italiano)s %(auth_user.name)s\') \n\ndb.define_table("Cliente", \n    Agente)\ndb.define_table("Fornitore", \n    Agente)\n\n#il codice precedente \xc3\xa8 equivalente a \n#db.define_table("Cliente",\n#    Field("id_auth_user", "reference auth_user"),\n#    Field("codice", "string", default=valoreNonDefinito),\n#    Field("nome", "string", default=None),\n#    Field("cap", "string", default=\'00000\', length=5),\n#    Field("via", "string", default=None),\n#    Field("descrizione", "text", default=None))\n#db.define_table("Fornitore",\n#    Field("id_auth_user", "reference auth_user"),\n#    Field("codice", "string", default=valoreNonDefinito),\n#    Field("nome", "string", default=None),\n#    Field("cap", "string", default=\'00000\', length=5),\n#    Field("via", "string", default=None),\n#    Field("descrizione", "text", default=None))\n#db.Cliente.id_auth_user.requires=IS_IN_DB( db, \'auth_user.id\', \'\')\n#db.Fornitore.id_auth_user.requires=IS_IN_DB( db, \'auth_user.id\', \'\')\n\ndb.define_table("Servizio",\n#   Field_uuid,\n#    Fields_signature,\n    Field("id_Categoria_servizio", "reference Categoria_servizio"),\n    Field("codice", "string", default=valoreNonDefinito),\n    Field("nome", "string", default=valoreNonDefinito),\n    Field("descrizione", "text", default=valoreNonDefinito),\n    Field("prezzo_SSR", "integer", default=valoreNonDefinito),\n    Field("ticket_SSR", "double", default=valoreNonDefinito))\ndb.Servizio.id_Categoria_servizio.requires=IS_IN_DB( db, \'Categoria_servizio.id\', mostraCodiceNome)\n\ndb.define_table("Prestazione",\n#    Field_uuid,\n#    Fields_signature,\n    Field("id_Servizio", "reference Servizio"),\n    Field("id_Fornitore", "reference Fornitore"),\n    Field("id_Cliente", "reference Cliente"),\n    Field("id_Stato_prestazione", "reference Stato_prestazione"),\n    Field("messaggio_utente", "text", default=valoreNonDefinito),\n    Field("messaggio_studio", "text", default=valoreNonDefinito),\n    Field("servizio_richiesto_disponibile", "boolean", default=valoreNonDefinito),\n    Field("giorno", "date", default=valoreNonDefinito),\n    Field("ora", "time", default=valoreNonDefinito),\n    Field("prezzo", "double", default=valoreNonDefinito))\ndb.Prestazione.id_Servizio.requires=IS_IN_DB( db, \'Servizio.id\', mostraCodiceNome)\ndb.Prestazione.id_Fornitore.requires=IS_IN_DB( db, \'Fornitore.id\', mostraCodiceNome)\ndb.Prestazione.id_Cliente.requires=IS_IN_DB( db, \'Cliente.id\', mostraCodiceNome)\ndb.Prestazione.id_Stato_prestazione.requires=IS_IN_DB( db, \'Stato_prestazione.id\', mostraCodiceNome)\n\ndb.define_table("Servizio_disponibile",\n#   Field_uuid,\n#    Fields_signature,\n    Field("id_Servizio", "reference Servizio"),\n    Field("id_Fornitore", "reference Fornitore"),\n    Field("id_Categoria_servizio", "reference Categoria_servizio"),\n    Field("Lunedi_mattina", "boolean", default=valoreNonDefinito),\n    Field("Lunedi_pomeriggio", "boolean", default=valoreNonDefinito),\n    Field("Martedi_mattina", "boolean", default=valoreNonDefinito),\n    Field("Martedi_pomeriggio", "boolean", default=valoreNonDefinito),\n    Field("Mercoledi_mattina", "boolean", default=valoreNonDefinito),\n    Field("Mercoledi_pomeriggio", "boolean", default=valoreNonDefinito),\n    Field("Giovedi_mattina", "boolean", default=valoreNonDefinito),\n    Field("Giovedi_pomeriggio", "boolean", default=valoreNonDefinito),\n    Field("Venerdi_mattina", "boolean", default=valoreNonDefinito),\n    Field("Venerdi_pomeriggio", "boolean", default=valoreNonDefinito),\n    Field("Sabato_mattina", "boolean", default=valoreNonDefinito),\n    Field("Sabato_pomeriggio", "boolean", default=valoreNonDefinito),\n    Field("Domenica_mattina", "boolean", default=valoreNonDefinito),\n    Field("Domenica_pomeriggio", "boolean", default=valoreNonDefinito),\n    Field("prezzo_listino", "double", default=valoreNonDefinito),\n    Field("prezzo_medio", "integer", default=valoreNonDefinito))\ndb.Servizio_disponibile.id_Servizio.requires=IS_IN_DB( db, \'Servizio.id\', mostraCodiceNome)\ndb.Servizio_disponibile.id_Fornitore.requires=IS_IN_DB( db, \'Fornitore.id\', mostraCodiceNome)\ndb.Servizio_disponibile.id_Categoria_servizio.requires=IS_IN_DB( db, \'Categoria_servizio.id\', mostraCodiceNome)\n\ndb.define_table("Soddisfazione",\n#   Field_uuid,\n#    Fields_signature,\n    Field("punteggio_cliente", "integer", default=valoreNonDefinito),\n    Field("commento_cliente", "text", default=valoreNonDefinito),\n    Field("commento_fornitore", "text", default=valoreNonDefinito),\n    Field("commento_cliente_pubblicato", "text", default=valoreNonDefinito),\n    Field("commento_fornitore_pubblicato", "text", default=valoreNonDefinito),\n    Field("id_Fornitore", "reference Fornitore"),\n    Field("id_Cliente", "reference Cliente"),\n    Field("pubblicato", "boolean", default=valoreNonDefinito))\ndb.Soddisfazione.id_Fornitore.requires=IS_IN_DB( db, \'Fornitore.id\', mostraCodiceNome)\ndb.Soddisfazione.id_Cliente.requires=IS_IN_DB( db, \'Cliente.id\', mostraCodiceNome)\n\n""" Relations between tables (remove fields you don\'t need from requires) """\n#db.Agente.id_auth_user.requires=IS_IN_DB( db, \'auth_user.id\', \'\') \n# equivalente a \n#db.Cliente.id_auth_user.requires=IS_IN_DB( db, \'auth_user.id\', \'\')\n#db.Fornitore.id_auth_user.requires=IS_IN_DB( db, \'auth_user.id\', \'\')\n#db.Servizio.id_Categoria_servizio.requires=IS_IN_DB( db, \'Categoria_servizio.id\', \' %(codice)s\')\n#db.Prestazione.id_Servizio.requires=IS_IN_DB( db, \'Servizio.id\', \' %(id_Categoria_servizio)s %(codice)s %(nome)s %(descrizione)s %(prezzo_SSR)s %(ticket_SSR)s\')\n#db.Prestazione.id_Fornitore.requires=IS_IN_DB( db, \'Fornitore.id\', \' %(id_auth_user)s %(codice)s %(nome)s %(cap)s %(via)s %(descrizione)s\')\n#db.Prestazione.id_Cliente.requires=IS_IN_DB( db, \'Cliente.id\', \' %(id_auth_user)s %(codice)s %(nome)s %(cap)s %(via)s %(descrizione)s\')\n#db.Prestazione.id_Stato_prestazione.requires=IS_IN_DB( db, \'Stato_prestazione.id\', \' %(codice)s\')\n#db.Servizio_disponibile.id_Servizio.requires=IS_IN_DB( db, \'Servizio.id\', \' %(id_Categoria_servizio)s %(codice)s %(nome)s %(descrizione)s %(prezzo_SSR)s %(ticket_SSR)s\')\n#db.Servizio_disponibile.id_Fornitore.requires=IS_IN_DB( db, \'Fornitore.id\', \' %(id_auth_user)s %(codice)s %(nome)s %(cap)s %(via)s %(descrizione)s\')\n#db.Servizio_disponibile.id_Categoria_servizio.requires=IS_IN_DB( db, \'Categoria_servizio.id\', \' %(codice)s\')\n#db.Soddisfazione.id_Fornitore.requires=IS_IN_DB( db, \'Fornitore.id\', \' %(id_auth_user)s %(codice)s %(nome)s %(cap)s %(via)s %(descrizione)s\')\n#db.Soddisfazione.id_Cliente.requires=IS_IN_DB( db, \'Cliente.id\', \' %(id_auth_user)s %(codice)s %(nome)s %(cap)s %(via)s %(descrizione)s\')\n\n#DB basato su schema del 12 marzo 2016\n#db.define_table("Categoria_servizio",\n#    Field("codice", "string", default=None),\n#    Field("codice_numerico", "string", default=None))\n\n#db.define_table("Stato_prestazione",\n#    Field("codice", "string", notnull=True, default=\'Richiesta\'),\n#    Field("codice_numerico", "integer", notnull=True, default=1))\n\n#db.define_table("Previsioni_servizio_disponibile",\n#    Field("link_informazioni", "string", default=None),\n#    Field("prezzo_medio", "double", default=None),\n#    Field("tempo_lista_attesa_medio", "double", default=None),\n#    Field("tempo_attesa_medio", "double", default=None),\n#    Field("tempo_durata_medio", "double", default=None),\n#    Field("tempo_informazione_medio", "double", default=None),\n#    Field("probabilita_efficienza_organizzativa", "double", default=None),\n#    Field("probabilita_efficienza_comunicativa", "double", default=None))\n\n##db.define_table("auth_user",)\n\n#db.define_table("Cliente",\n#    Field("id_auth_user", "reference auth_user"),\n#    Field("codice", "string", default=None),\n#    Field("codice_numerico", "string", default=None),\n#    Field("nome", "string", default=None),\n#    Field("cap", "string", default=None),\n#    Field("via", "string", default=None),\n#    Field("descrizione", "text", default=None),\n#    Field("link_informazioni", "string", default=None))\n\n#db.define_table("Fornitore",\n#    Field("id_auth_user", "reference auth_user"),\n#    Field("codice", "string", default=None),\n#    Field("codice_numerico", "string", default=None),\n#    Field("nome", "string", default=None),\n#    Field("cap", "string", default=None),\n#    Field("via", "string", default=None),\n#    Field("descrizione", "text", default=None),\n#    Field("link_informazioni", "string", default=None))\n\n#db.define_table("Servizio",\n#     Field("id_Categoria_servizio", "reference Categoria_servizio"),\n#     Field("codice", "string", default=None),\n#     Field("codicenumerico", "integer", default=None),\n#     Field("nome", "string", default=None),\n#     Field("descrizione", "text", default=None),\n#     Field("link_informazioni", "string", default=None),\n#     Field("consenso_informato_da_firmare", "boolean", default=None))\n\n#db.define_table("Prestazione",\n#     Field("id_Servizio", "reference Servizio"),\n#     Field("id_Fornitore", "reference Fornitore"),\n#     Field("id_Cliente", "reference Cliente"),\n#     Field("id_Stato_prestazione", "reference Stato_prestazione"),\n#     Field("messaggio_utente", "text", default=None),\n#     Field("messaggio_studio", "text", default=None),\n#     Field("servizio_richiesto_non_disponibile", "boolean", default=None),\n#     Field("servizio_richiesto_con_codice_esenzione", "boolean", default=None),\n#     Field("codice_esenzione", "string", default=None),\n#     Field("giorno", "date", default=None),\n#     Field("ora", "time", default=None),\n#     Field("prezzo_SSR", "double", default=None),\n#     Field("ticket_SSR", "integer", default=None),\n#     Field("prezzo_fornitore", "double", default=None),\n#     Field("IVA", "double", default=None),\n#     Field("prezzo_bolli", "integer", default=None))\n\n#db.define_table("Servizio_disponibile",\n#    Field("id_Servizio", "reference Servizio"),\n#    Field("id_Fornitore", "reference Fornitore"),\n#    Field("id_Categoria_servizio", "reference Categoria_servizio"),\n#    Field("id_Previsioni_servizio_disponibile", "reference Previsioni_servizio_disponibile"),\n#    Field("Lunedi_mattina", "boolean", default=None),\n#    Field("Lunedi_pomeriggio", "boolean", default=None),\n#    Field("Martedi_mattina", "boolean", default=None),\n#    Field("Martedi_pomeriggio", "boolean", default=None),\n#    Field("Mercoledi_mattina", "boolean", default=None),\n#    Field("Mercoledi_pomeriggio", "boolean", default=None),\n#    Field("Giovedi_mattina", "boolean", default=None),\n#    Field("Giovedi_pomeriggio", "boolean", default=None),\n#    Field("Venerdi_mattina", "boolean", default=None),\n#    Field("Venerdi_pomeriggio", "boolean", default=None),\n#    Field("Sabato_mattina", "boolean", default=None),\n#    Field("Sabato_pomeriggio", "boolean", default=None),\n#    Field("Domenica_mattina", "boolean", default=None),\n#    Field("Domenica_pomeriggio", "boolean", default=None),\n#    Field("prezzo_locale", "integer", default=None))\n\n#db.define_table("Performance",\n#    Field("id_Prestazione", "reference Prestazione"),\n#    Field("data_effettiva", "date", default=None),\n#    Field("ora_effettiva", "time", default=None),\n#    Field("prezzo_pagato", "integer", default=None),\n#    Field("tempo_attesa", "double", default=None),\n#    Field("tempo_esecuzione", "double", default=None),\n#    Field("tempo_informazione", "double", default=None),\n#    Field("informazioni_fornite_a_voce", "boolean", default=None),\n#    Field("informazioni_fornite_con_mezzi_di_supporto", "boolean", default=None),\n#    Field("consenso_informato_firmato", "boolean", default=None))\n\n#db.define_table("Soddisfazione",\n#    Field("id_Prestazione", "reference Prestazione"),\n#    Field("punteggio_cliente", "integer", default=None),\n#    Field("commento_cliente", "text", default=None),\n#    Field("commento_fornitore", "text", default=None),\n#    Field("commento_cliente_pubblicato", "text", default=None),\n#    Field("commento_fornitore_pubblicato", "text", default=None))\n\n#db.define_table("Prezzi_SSR",\n#    Field("id_Servizio", "reference Servizio"),\n#    Field("codice_regione", "integer", default=None),\n#    Field("nome_regione", "integer", default=None),\n#    Field("prezzo_al_cliente", "double", default=None),\n#    Field("ticket", "integer", default=None),\n#    Field("prezzo_al_fornitore", "double", default=None),\n#    Field("data_inizio", "date", default=None),\n#    Field("in_vigore", "boolean", default=1),\n#    Field("data_fine", "date", default=None))\n\n#""" Relations between tables (remove fields you don\'t need from requires) """\n#db.Cliente.id_auth_user.requires=IS_IN_DB( db, \'auth_user.id\', \'\')\n#db.Fornitore.id_auth_user.requires=IS_IN_DB( db, \'auth_user.id\', \'\')\n#db.Servizio.id_Categoria_servizio.requires=IS_IN_DB( db, \'Categoria_servizio.id\', \' %(codice)s %(codice_numerico)s\')\n#db.Prestazione.id_Servizio.requires=IS_IN_DB( db, \'Servizio.id\', \' %(id_Categoria_servizio)s %(codice)s %(codice_numerico)s %(nome)s %(descrizione)s %(link_informazioni)s %(consenso_informato_da_firmare)s\')\n#db.Prestazione.id_Fornitore.requires=IS_IN_DB( db, \'Fornitore.id\', \' %(id_auth_user)s %(codice)s %(codice_numerico)s %(nome)s %(cap)s %(via)s %(descrizione)s %(link_informazioni)s\')\n#db.Prestazione.id_Cliente.requires=IS_IN_DB( db, \'Cliente.id\', \' %(id_auth_user)s %(codice)s %(codice_numerico)s %(nome)s %(cap)s %(via)s %(descrizione)s %(link_informazioni)s\')\n#db.Prestazione.id_Stato_prestazione.requires=IS_IN_DB( db, \'Stato_prestazione.id\', \' %(codice)s %(codice_numerico)s\')\n#db.Servizio_disponibile.id_Servizio.requires=IS_IN_DB( db, \'Servizio.id\', \' %(id_Categoria_servizio)s %(codice)s %(codice_numerico)s %(nome)s %(descrizione)s %(link_informazioni)s %(consenso_informato_da_firmare)s\')\n#db.Servizio_disponibile.id_Fornitore.requires=IS_IN_DB( db, \'Fornitore.id\', \' %(id_auth_user)s %(codice)s %(codice_numerico)s %(nome)s %(cap)s %(via)s %(descrizione)s %(link_informazioni)s\')\n#db.Servizio_disponibile.id_Categoria_servizio.requires=IS_IN_DB( db, \'Categoria_servizio.id\', \' %(codice)s %(codice_numerico)s\')\n#db.Servizio_disponibile.id_Previsioni_servizio_disponibile.requires=IS_IN_DB( db, \'Previsioni_servizio_disponibile.id\', \' %(link_informazioni)s %(prezzo_medio)s %(tempo_lista_attesa_medio)s %(tempo_attesa_medio)s %(tempo_durata_medio)s %(tempo_informazione_medio)s %(probabilita_efficienza_organizzativa)s %(probabilita_efficienza_comunicativa)s\')\n#db.Performance.id_Prestazione.requires=IS_IN_DB( db, \'Prestazione.id\', \' %(id_Servizio)s %(id_Fornitore)s %(id_Cliente)s %(id_Stato_prestazione)s %(messaggio_utente)s %(messaggio_studio)s %(servizio_richiesto_non_disponibile)s %(servizio_richiesto_con_codice_esenzione)s %(codice_esenzione)s %(data)s %(ora)s %(prezzo_SSR)s %(ticket_SSR)s %(prezzo_fornitore)s %(IVA)s %(prezzo_bolli)s\')\n#db.Soddisfazione.id_Prestazione.requires=IS_IN_DB( db, \'Prestazione.id\', \' %(id_Servizio)s %(id_Fornitore)s %(id_Cliente)s %(id_Stato_prestazione)s %(messaggio_utente)s %(messaggio_studio)s %(servizio_richiesto_non_disponibile)s %(servizio_richiesto_con_codice_esenzione)s %(codice_esenzione)s %(data)s %(ora)s %(prezzo_SSR)s %(ticket_SSR)s %(prezzo_fornitore)s %(IVA)s %(prezzo_bolli)s\')\n#db.Prezzi_SSR.id_Servizio.requires=IS_IN_DB( db, \'Servizio.id\', \' %(id_Categoria_servizio)s %(codice)s %(codice_numerico)s %(nome)s %(descrizione)s %(link_informazioni)s %(consenso_informato_da_firmare)s\')\n\n\n# end generated source code from SQLDesigner\n## after defining tables, uncomment below to enable auditing\nauth.enable_record_versioning(db)\n\n#for table in db.tables:\n#    if not table.startswith(\'auth_\'):\n#        db[table]._enable_record_versioning()\n#    else:\n#        continue\n\ndb.Categoria_servizio._enable_record_versioning()\ndb.Cliente._enable_record_versioning()\ndb.Fornitore._enable_record_versioning()\ndb.Presentazione._enable_record_versioning()\ndb.Servizio._enable_record_versioning()\ndb.Servizio_disponibile._enable_record_versioning()\ndb.Soddisfazione._enable_record_versioning()\ndb.Stato_prestazione._enable_record_versioning()\n## campi aggiuntivi si definiscono dopo auth = Auth(db)\n#for auth_tablename in auth_tablenames:\n#    auth.settings.extra_fields[auth_tablenames]=[Field_uuid]\n'
p7
sS'snapshot'
p8
(dp9
S'exception'
p10
(dp11
S'__hash__'
p12
S"<method-wrapper '__hash__' of exceptions.AttributeError object>"
p13
sS'__setattr__'
p14
S"<method-wrapper '__setattr__' of exceptions.AttributeError object>"
p15
sS'__reduce_ex__'
p16
S'<built-in method __reduce_ex__ of exceptions.AttributeError object>'
p17
sS'__getslice__'
p18
S"<method-wrapper '__getslice__' of exceptions.AttributeError object>"
p19
sS'__getitem__'
p20
S"<method-wrapper '__getitem__' of exceptions.AttributeError object>"
p21
sS'__setstate__'
p22
S'<built-in method __setstate__ of exceptions.AttributeError object>'
p23
sS'__reduce__'
p24
S'<built-in method __reduce__ of exceptions.AttributeError object>'
p25
sS'__str__'
p26
S"<method-wrapper '__str__' of exceptions.AttributeError object>"
p27
sS'__format__'
p28
S'<built-in method __format__ of exceptions.AttributeError object>'
p29
sS'__getattribute__'
p30
S"<method-wrapper '__getattribute__' of exceptions.AttributeError object>"
p31
sS'__class__'
p32
S"<type 'exceptions.AttributeError'>"
p33
sS'__unicode__'
p34
S'<built-in method __unicode__ of exceptions.AttributeError object>'
p35
sS'__delattr__'
p36
S"<method-wrapper '__delattr__' of exceptions.AttributeError object>"
p37
sS'__subclasshook__'
p38
S'<built-in method __subclasshook__ of type object>'
p39
sS'__repr__'
p40
S"<method-wrapper '__repr__' of exceptions.AttributeError object>"
p41
sS'__dict__'
p42
S'{}'
p43
sS'args'
p44
S'("\'DAL\' object has no attribute \'Presentazione\'",)'
p45
sS'__sizeof__'
p46
S'<built-in method __sizeof__ of exceptions.AttributeError object>'
p47
sS'__doc__'
p48
S"'Attribute not found.'"
p49
sS'__init__'
p50
S"<method-wrapper '__init__' of exceptions.AttributeError object>"
p51
sS'__new__'
p52
S'<built-in method __new__ of type object>'
p53
ssS'evalue'
p54
S"'DAL' object has no attribute 'Presentazione'"
p55
sS'request'
p56
cgluon.html
XML_unpickle
p57
(S'sTV\x00\x00<div><table><tr><td style="font-weight:bold;vertical-align:top;">ajax</td><td style="vertical-align:top;">:</td><td><div>False</div></td></tr><tr><td style="font-weight:bold;vertical-align:top;">application</td><td style="vertical-align:top;">:</td><td><div>CUP</div></td></tr><tr><td style="font-weight:bold;vertical-align:top;">args</td><td style="vertical-align:top;">:</td><td><div><table></table></div></td></tr><tr><td style="font-weight:bold;vertical-align:top;">cid</td><td style="vertical-align:top;">:</td><td><div>None</div></td></tr><tr><td style="font-weight:bold;vertical-align:top;">client</td><td style="vertical-align:top;">:</td><td><div>127.0.0.1</div></td></tr><tr><td style="font-weight:bold;vertical-align:top;">controller</td><td style="vertical-align:top;">:</td><td><div>default</div></td></tr><tr><td style="font-weight:bold;vertical-align:top;">cookies</td><td style="vertical-align:top;">:</td><td><div><table><tr><td style="font-weight:bold;vertical-align:top;">session_id_admin</td><td style="vertical-align:top;">:</td><td><div>127.0.0.1-e5edccdd-e93e-4ec1-a8b4-262ea60b69d8<table><tr><td style="font-weight:bold;vertical-align:top;">comment</td><td style="vertical-align:top;">:</td><td><div></div></td></tr><tr><td style="font-weight:bold;vertical-align:top;">domain</td><td style="vertical-align:top;">:</td><td><div></div></td></tr><tr><td style="font-weight:bold;vertical-align:top;">expires</td><td style="vertical-align:top;">:</td><td><div></div></td></tr><tr><td style="font-weight:bold;vertical-align:top;">httponly</td><td style="vertical-align:top;">:</td><td><div></div></td></tr><tr><td style="font-weight:bold;vertical-align:top;">max-age</td><td style="vertical-align:top;">:</td><td><div></div></td></tr><tr><td style="font-weight:bold;vertical-align:top;">path</td><td style="vertical-align:top;">:</td><td><div></div></td></tr><tr><td style="font-weight:bold;vertical-align:top;">secure</td><td style="vertical-align:top;">:</td><td><div></div></td></tr><tr><td style="font-weight:bold;vertical-align:top;">version</td><td style="vertical-align:top;">:</td><td><div></div></td></tr></table></div></td></tr></table></div></td></tr><tr><td style="font-weight:bold;vertical-align:top;">env</td><td style="vertical-align:top;">:</td><td><div><table><tr><td style="font-weight:bold;vertical-align:top;">HTTP_ACCEPT</td><td style="vertical-align:top;">:</td><td><div>text/html, application/xhtml+xml, */*</div></td></tr><tr><td style="font-weight:bold;vertical-align:top;">HTTP_ACCEPT_ENCODING</td><td style="vertical-align:top;">:</td><td><div>gzip, deflate, peerdist</div></td></tr><tr><td style="font-weight:bold;vertical-align:top;">HTTP_ACCEPT_LANGUAGE</td><td style="vertical-align:top;">:</td><td><div>it-IT</div></td></tr><tr><td style="font-weight:bold;vertical-align:top;">HTTP_CONNECTION</td><td style="vertical-align:top;">:</td><td><div>Keep-Alive</div></td></tr><tr><td style="font-weight:bold;vertical-align:top;">HTTP_COOKIE</td><td style="vertical-align:top;">:</td><td><div>session_id_admin=127.0.0.1-e5edccdd-e93e-4ec1-a8b4-262ea60b69d8</div></td></tr><tr><td style="font-weight:bold;vertical-align:top;">HTTP_HOST</td><td style="vertical-align:top;">:</td><td><div>localhost:8080</div></td></tr><tr><td style="font-weight:bold;vertical-align:top;">HTTP_USER_AGENT</td><td style="vertical-align:top;">:</td><td><div>Mozilla/5.0 (Windows NT 6.3; WOW64; Trident/7.0; Touch; rv:11.0) like Gecko</div></td></tr><tr><td style="font-weight:bold;vertical-align:top;">HTTP_X_P2P_PEERDIST</td><td style="vertical-align:top;">:</td><td><div>Version=1.1</div></td></tr><tr><td style="font-weight:bold;vertical-align:top;">HTTP_X_P2P_PEERDISTEX</td><td style="vertical-align:top;">:</td><td><div>MinContentInformation=1.0, MaxContentInformation=2.0</div></td></tr><tr><td style="font-weight:bold;vertical-align:top;">PATH_INFO</td><td style="vertical-align:top;">:</td><td><div>/CUP</div></td></tr><tr><td style="font-weight:bold;vertical-align:top;">QUERY_STRING</td><td style="vertical-align:top;">:</td><td><div></div></td></tr><tr><td style="font-weight:bold;vertical-align:top;">REMOTE_ADDR</td><td style="vertical-align:top;">:</td><td><div>127.0.0.1</div></td></tr><tr><td style="font-weight:bold;vertical-align:top;">REMOTE_PORT</td><td style="vertical-align:top;">:</td><td><div>52794</div></td></tr><tr><td style="font-weight:bold;vertical-align:top;">REQUEST_METHOD</td><td style="vertical-align:top;">:</td><td><div>GET</div></td></tr><tr><td style="font-weight:bold;vertical-align:top;">SCRIPT_NAME</td><td style="vertical-align:top;">:</td><td><div></div></td></tr><tr><td style="font-weight:bold;vertical-align:top;">SERVER_NAME</td><td style="vertical-align:top;">:</td><td><div>DataScienceVM</div></td></tr><tr><td style="font-weight:bold;vertical-align:top;">SERVER_PORT</td><td style="vertical-align:top;">:</td><td><div>8080</div></td></tr><tr><td style="font-weight:bold;vertical-align:top;">SERVER_PROTOCOL</td><td style="vertical-align:top;">:</td><td><div>HTTP/1.1</div></td></tr><tr><td style="font-weight:bold;vertical-align:top;">SERVER_SOFTWARE</td><td style="vertical-align:top;">:</td><td><div>Rocket 1.2.6</div></td></tr><tr><td style="font-weight:bold;vertical-align:top;">app_folders</td><td style="vertical-align:top;">:</td><td><div>set([&#x27;C:\\\\Users\\\\Administrator.DATASCIENCEVM\\\\Dropbox\\\\______________myDevProjects\\\\myWebApps\\\\myWebApps\\\\web2py\\\\applications\\\\admin\\\\&#x27;, &#x27;C:\\\\Users\\\\Administrator.DATASCIENCEVM\\\\Dropbox\\\\______________myDevProjects\\\\myWebApps\\\\myWebApps\\\\web2py\\\\applications\\\\CUP\\\\&#x27;])</div></td></tr><tr><td style="font-weight:bold;vertical-align:top;">applications_parent</td><td style="vertical-align:top;">:</td><td><div>C:\\Users\\Administrator.DATASCIENCEVM\\Dropbox\\______________myDevProjects\\myWebApps\\myWebApps\\web2py</div></td></tr><tr><td style="font-weight:bold;vertical-align:top;">cmd_args</td><td style="vertical-align:top;">:</td><td><div><table></table></div></td></tr><tr><td style="font-weight:bold;vertical-align:top;">cmd_options</td><td style="vertical-align:top;">:</td><td><div>&lt;Values at 0x44b8408: {&#x27;verbose&#x27;: False, &#x27;ip&#x27;: &#x27;localhost&#x27;, &#x27;debuglevel&#x27;: 30, &#x27;with_scheduler&#x27;: False, &#x27;ips&#x27;: [&#x27;192.168.1.100&#x27;, &#x27;2001:0:9d38:6ab8:2c32:e71:fd13:5738&#x27;, &#x27;fe80::244b:ba1:e8b9:363d%12&#x27;, &#x27;fe80::2c32:e71:fd13:5738%15&#x27;], &#x27;shutdown_timeout&#x27;: 5, &#x27;taskbar&#x27;: False, &#x27;with_coverage&#x27;: False, &#x27;scheduler_groups&#x27;: None, &#x27;port&#x27;: 8080, &#x27;maxthreads&#x27;: None, &#x27;softcron&#x27;: False, &#x27;server_name&#x27;: &#x27;DataScienceVM&#x27;, &#x27;bpython&#x27;: False, &#x27;nogui&#x27;: False, &#x27;pid_filename&#x27;: &#x27;httpserver.pid&#x27;, &#x27;print_errors&#x27;: False, &#x27;extcron&#x27;: False, &#x27;runcron&#x27;: False, &#x27;run_system_tests&#x27;: False, &#x27;test&#x27;: None, &#x27;folder&#x27;: &#x27;C:\\\\Users\\\\Administrator.DATASCIENCEVM\\\\Dropbox\\\\______________myDevProjects\\\\myWebApps\\\\myWebApps\\\\web2py&#x27;, &#x27;config&#x27;: &#x27;&#x27;, &#x27;minthreads&#x27;: None, &#x27;shell&#x27;: None, &#x27;run&#x27;: &#x27;&#x27;, &#x27;log_filename&#x27;: &#x27;httpserver.log&#x27;, &#x27;profiler_dir&#x27;: None, &#x27;args&#x27;: [&#x27;&#x27;], &#x27;socket_timeout&#x27;: 5, &#x27;ssl_ca_certificate&#x27;: None, &#x27;scheduler&#x27;: None, &#x27;interfaces&#x27;: None, &#x27;ssl_private_key&#x27;: &#x27;&#x27;, &#x27;gae&#x27;: None, &#x27;password&#x27;: &#x27;1234&#x27;, &#x27;request_queue_size&#x27;: 5, &#x27;ssl_certificate&#x27;: &#x27;&#x27;, &#x27;cronjob&#x27;: False, &#x27;numthreads&#x27;: None, &#x27;quiet&#x27;: False, &#x27;import_models&#x27;: False, &#x27;timeout&#x27;: 10, &#x27;plain&#x27;: False, &#x27;nobanner&#x27;: False}&gt;</div></td></tr><tr><td style="font-weight:bold;vertical-align:top;">db_sessions</td><td style="vertical-align:top;">:</td><td><div>set([])</div></td></tr><tr><td style="font-weight:bold;vertical-align:top;">debugging</td><td style="vertical-align:top;">:</td><td><div>False</div></td></tr><tr><td style="font-weight:bold;vertical-align:top;">gluon_parent</td><td style="vertical-align:top;">:</td><td><div>C:\\Users\\Administrator.DATASCIENCEVM\\Dropbox\\______________myDevProjects\\myWebApps\\myWebApps\\web2py</div></td></tr><tr><td style="font-weight:bold;vertical-align:top;">http_accept</td><td style="vertical-align:top;">:</td><td><div>text/html, application/xhtml+xml, */*</div></td></tr><tr><td style="font-weight:bold;vertical-align:top;">http_accept_encoding</td><td style="vertical-align:top;">:</td><td><div>gzip, deflate, peerdist</div></td></tr><tr><td style="font-weight:bold;vertical-align:top;">http_accept_language</td><td style="vertical-align:top;">:</td><td><div>it-IT</div></td></tr><tr><td style="font-weight:bold;vertical-align:top;">http_connection</td><td style="vertical-align:top;">:</td><td><div>Keep-Alive</div></td></tr><tr><td style="font-weight:bold;vertical-align:top;">http_cookie</td><td style="vertical-align:top;">:</td><td><div>session_id_admin=127.0.0.1-e5edccdd-e93e-4ec1-a8b4-262ea60b69d8</div></td></tr><tr><td style="font-weight:bold;vertical-align:top;">http_host</td><td style="vertical-align:top;">:</td><td><div>localhost:8080</div></td></tr><tr><td style="font-weight:bold;vertical-align:top;">http_user_agent</td><td style="vertical-align:top;">:</td><td><div>Mozilla/5.0 (Windows NT 6.3; WOW64; Trident/7.0; Touch; rv:11.0) like Gecko</div></td></tr><tr><td style="font-weight:bold;vertical-align:top;">http_x_p2p_peerdist</td><td style="vertical-align:top;">:</td><td><div>Version=1.1</div></td></tr><tr><td style="font-weight:bold;vertical-align:top;">http_x_p2p_peerdistex</td><td style="vertical-align:top;">:</td><td><div>MinContentInformation=1.0, MaxContentInformation=2.0</div></td></tr><tr><td style="font-weight:bold;vertical-align:top;">is_jython</td><td style="vertical-align:top;">:</td><td><div>False</div></td></tr><tr><td style="font-weight:bold;vertical-align:top;">is_pypy</td><td style="vertical-align:top;">:</td><td><div>False</div></td></tr><tr><td style="font-weight:bold;vertical-align:top;">is_source</td><td style="vertical-align:top;">:</td><td><div>True</div></td></tr><tr><td style="font-weight:bold;vertical-align:top;">local_hosts</td><td style="vertical-align:top;">:</td><td><div><table><tr><td><div>2001:0:9d38:6ab8:2c32:e71:fd13:5738</div></td></tr><tr><td><div>DataScienceVM.SOS-NHS.local</div></td></tr><tr><td><div>192.168.1.100</div></td></tr><tr><td><div>::ffff:127.0.0.1</div></td></tr><tr><td><div>::1</div></td></tr><tr><td><div>fe80::2c32:e71:fd13:5738%15</div></td></tr><tr><td><div>fe80::244b:ba1:e8b9:363d%12</div></td></tr><tr><td><div>DataScienceVM</div></td></tr><tr><td><div>127.0.0.1</div></td></tr></table></div></td></tr><tr><td style="font-weight:bold;vertical-align:top;">path_info</td><td style="vertical-align:top;">:</td><td><div>/CUP</div></td></tr><tr><td style="font-weight:bold;vertical-align:top;">query_string</td><td style="vertical-align:top;">:</td><td><div></div></td></tr><tr><td style="font-weight:bold;vertical-align:top;">remote_addr</td><td style="vertical-align:top;">:</td><td><div>127.0.0.1</div></td></tr><tr><td style="font-weight:bold;vertical-align:top;">remote_port</td><td style="vertical-align:top;">:</td><td><div>52794</div></td></tr><tr><td style="font-weight:bold;vertical-align:top;">request_method</td><td style="vertical-align:top;">:</td><td><div>GET</div></td></tr><tr><td style="font-weight:bold;vertical-align:top;">request_uri</td><td style="vertical-align:top;">:</td><td><div>/CUP/default/index</div></td></tr><tr><td style="font-weight:bold;vertical-align:top;">script_name</td><td style="vertical-align:top;">:</td><td><div></div></td></tr><tr><td style="font-weight:bold;vertical-align:top;">server_name</td><td style="vertical-align:top;">:</td><td><div>DataScienceVM</div></td></tr><tr><td style="font-weight:bold;vertical-align:top;">server_port</td><td style="vertical-align:top;">:</td><td><div>8080</div></td></tr><tr><td style="font-weight:bold;vertical-align:top;">server_protocol</td><td style="vertical-align:top;">:</td><td><div>HTTP/1.1</div></td></tr><tr><td style="font-weight:bold;vertical-align:top;">server_software</td><td style="vertical-align:top;">:</td><td><div>Rocket 1.2.6</div></td></tr><tr><td style="font-weight:bold;vertical-align:top;">web2py_original_uri</td><td style="vertical-align:top;">:</td><td><div>/CUP</div></td></tr><tr><td style="font-weight:bold;vertical-align:top;">web2py_path</td><td style="vertical-align:top;">:</td><td><div>C:\\Users\\Administrator.DATASCIENCEVM\\Dropbox\\______________myDevProjects\\myWebApps\\myWebApps\\web2py</div></td></tr><tr><td style="font-weight:bold;vertical-align:top;">web2py_version</td><td style="vertical-align:top;">:</td><td><div>2.13.4-stable+timestamp.2015.12.26.04.59.39</div></td></tr><tr><td style="font-weight:bold;vertical-align:top;">wsgi.errors</td><td style="vertical-align:top;">:</td><td><div>&lt;visualstudio_py_debugger._DebuggerOutput object at 0x00000000033E7BA8&gt;</div></td></tr><tr><td style="font-weight:bold;vertical-align:top;">wsgi.file_wrapper</td><td style="vertical-align:top;">:</td><td><div>&lt;class wsgiref.util.FileWrapper at 0x0000000004456A08&gt;</div></td></tr><tr><td style="font-weight:bold;vertical-align:top;">wsgi.input</td><td style="vertical-align:top;">:</td><td><div>&lt;socket._fileobject object at 0x0000000009E89750&gt;</div></td></tr><tr><td style="font-weight:bold;vertical-align:top;">wsgi.multiprocess</td><td style="vertical-align:top;">:</td><td><div>False</div></td></tr><tr><td style="font-weight:bold;vertical-align:top;">wsgi.multithread</td><td style="vertical-align:top;">:</td><td><div>True</div></td></tr><tr><td style="font-weight:bold;vertical-align:top;">wsgi.run_once</td><td style="vertical-align:top;">:</td><td><div>False</div></td></tr><tr><td style="font-weight:bold;vertical-align:top;">wsgi.url_scheme</td><td style="vertical-align:top;">:</td><td><div>http</div></td></tr><tr><td style="font-weight:bold;vertical-align:top;">wsgi.version</td><td style="vertical-align:top;">:</td><td><div><table><tr><td><div>1</div></td></tr><tr><td><div>0</div></td></tr></table></div></td></tr><tr><td style="font-weight:bold;vertical-align:top;">wsgi_errors</td><td style="vertical-align:top;">:</td><td><div>&lt;visualstudio_py_debugger._DebuggerOutput object at 0x00000000033E7BA8&gt;</div></td></tr><tr><td style="font-weight:bold;vertical-align:top;">wsgi_file_wrapper</td><td style="vertical-align:top;">:</td><td><div>&lt;class wsgiref.util.FileWrapper at 0x0000000004456A08&gt;</div></td></tr><tr><td style="font-weight:bold;vertical-align:top;">wsgi_input</td><td style="vertical-align:top;">:</td><td><div>&lt;socket._fileobject object at 0x0000000009E89750&gt;</div></td></tr><tr><td style="font-weight:bold;vertical-align:top;">wsgi_multiprocess</td><td style="vertical-align:top;">:</td><td><div>False</div></td></tr><tr><td style="font-weight:bold;vertical-align:top;">wsgi_multithread</td><td style="vertical-align:top;">:</td><td><div>True</div></td></tr><tr><td style="font-weight:bold;vertical-align:top;">wsgi_run_once</td><td style="vertical-align:top;">:</td><td><div>False</div></td></tr><tr><td style="font-weight:bold;vertical-align:top;">wsgi_url_scheme</td><td style="vertical-align:top;">:</td><td><div>http</div></td></tr><tr><td style="font-weight:bold;vertical-align:top;">wsgi_version</td><td style="vertical-align:top;">:</td><td><div><table><tr><td><div>1</div></td></tr><tr><td><div>0</div></td></tr></table></div></td></tr></table></div></td></tr><tr><td style="font-weight:bold;vertical-align:top;">extension</td><td style="vertical-align:top;">:</td><td><div>html</div></td></tr><tr><td style="font-weight:bold;vertical-align:top;">folder</td><td style="vertical-align:top;">:</td><td><div>C:\\Users\\Administrator.DATASCIENCEVM\\Dropbox\\______________myDevProjects\\myWebApps\\myWebApps\\web2py\\applications\\CUP\\</div></td></tr><tr><td style="font-weight:bold;vertical-align:top;">function</td><td style="vertical-align:top;">:</td><td><div>index</div></td></tr><tr><td style="font-weight:bold;vertical-align:top;">global_settings</td><td style="vertical-align:top;">:</td><td><div><table><tr><td style="font-weight:bold;vertical-align:top;">app_folders</td><td style="vertical-align:top;">:</td><td><div>set([&#x27;C:\\\\Users\\\\Administrator.DATASCIENCEVM\\\\Dropbox\\\\______________myDevProjects\\\\myWebApps\\\\myWebApps\\\\web2py\\\\applications\\\\admin\\\\&#x27;, &#x27;C:\\\\Users\\\\Administrator.DATASCIENCEVM\\\\Dropbox\\\\______________myDevProjects\\\\myWebApps\\\\myWebApps\\\\web2py\\\\applications\\\\CUP\\\\&#x27;])</div></td></tr><tr><td style="font-weight:bold;vertical-align:top;">applications_parent</td><td style="vertical-align:top;">:</td><td><div>C:\\Users\\Administrator.DATASCIENCEVM\\Dropbox\\______________myDevProjects\\myWebApps\\myWebApps\\web2py</div></td></tr><tr><td style="font-weight:bold;vertical-align:top;">cmd_args</td><td style="vertical-align:top;">:</td><td><div><table></table></div></td></tr><tr><td style="font-weight:bold;vertical-align:top;">cmd_options</td><td style="vertical-align:top;">:</td><td><div>&lt;Values at 0x44b8408: {&#x27;verbose&#x27;: False, &#x27;ip&#x27;: &#x27;localhost&#x27;, &#x27;debuglevel&#x27;: 30, &#x27;with_scheduler&#x27;: False, &#x27;ips&#x27;: [&#x27;192.168.1.100&#x27;, &#x27;2001:0:9d38:6ab8:2c32:e71:fd13:5738&#x27;, &#x27;fe80::244b:ba1:e8b9:363d%12&#x27;, &#x27;fe80::2c32:e71:fd13:5738%15&#x27;], &#x27;shutdown_timeout&#x27;: 5, &#x27;taskbar&#x27;: False, &#x27;with_coverage&#x27;: False, &#x27;scheduler_groups&#x27;: None, &#x27;port&#x27;: 8080, &#x27;maxthreads&#x27;: None, &#x27;softcron&#x27;: False, &#x27;server_name&#x27;: &#x27;DataScienceVM&#x27;, &#x27;bpython&#x27;: False, &#x27;nogui&#x27;: False, &#x27;pid_filename&#x27;: &#x27;httpserver.pid&#x27;, &#x27;print_errors&#x27;: False, &#x27;extcron&#x27;: False, &#x27;runcron&#x27;: False, &#x27;run_system_tests&#x27;: False, &#x27;test&#x27;: None, &#x27;folder&#x27;: &#x27;C:\\\\Users\\\\Administrator.DATASCIENCEVM\\\\Dropbox\\\\______________myDevProjects\\\\myWebApps\\\\myWebApps\\\\web2py&#x27;, &#x27;config&#x27;: &#x27;&#x27;, &#x27;minthreads&#x27;: None, &#x27;shell&#x27;: None, &#x27;run&#x27;: &#x27;&#x27;, &#x27;log_filename&#x27;: &#x27;httpserver.log&#x27;, &#x27;profiler_dir&#x27;: None, &#x27;args&#x27;: [&#x27;&#x27;], &#x27;socket_timeout&#x27;: 5, &#x27;ssl_ca_certificate&#x27;: None, &#x27;scheduler&#x27;: None, &#x27;interfaces&#x27;: None, &#x27;ssl_private_key&#x27;: &#x27;&#x27;, &#x27;gae&#x27;: None, &#x27;password&#x27;: &#x27;1234&#x27;, &#x27;request_queue_size&#x27;: 5, &#x27;ssl_certificate&#x27;: &#x27;&#x27;, &#x27;cronjob&#x27;: False, &#x27;numthreads&#x27;: None, &#x27;quiet&#x27;: False, &#x27;import_models&#x27;: False, &#x27;timeout&#x27;: 10, &#x27;plain&#x27;: False, &#x27;nobanner&#x27;: False}&gt;</div></td></tr><tr><td style="font-weight:bold;vertical-align:top;">db_sessions</td><td style="vertical-align:top;">:</td><td><div>set([])</div></td></tr><tr><td style="font-weight:bold;vertical-align:top;">debugging</td><td style="vertical-align:top;">:</td><td><div>False</div></td></tr><tr><td style="font-weight:bold;vertical-align:top;">gluon_parent</td><td style="vertical-align:top;">:</td><td><div>C:\\Users\\Administrator.DATASCIENCEVM\\Dropbox\\______________myDevProjects\\myWebApps\\myWebApps\\web2py</div></td></tr><tr><td style="font-weight:bold;vertical-align:top;">is_jython</td><td style="vertical-align:top;">:</td><td><div>False</div></td></tr><tr><td style="font-weight:bold;vertical-align:top;">is_pypy</td><td style="vertical-align:top;">:</td><td><div>False</div></td></tr><tr><td style="font-weight:bold;vertical-align:top;">is_source</td><td style="vertical-align:top;">:</td><td><div>True</div></td></tr><tr><td style="font-weight:bold;vertical-align:top;">local_hosts</td><td style="vertical-align:top;">:</td><td><div><table><tr><td><div>2001:0:9d38:6ab8:2c32:e71:fd13:5738</div></td></tr><tr><td><div>DataScienceVM.SOS-NHS.local</div></td></tr><tr><td><div>192.168.1.100</div></td></tr><tr><td><div>::ffff:127.0.0.1</div></td></tr><tr><td><div>::1</div></td></tr><tr><td><div>fe80::2c32:e71:fd13:5738%15</div></td></tr><tr><td><div>fe80::244b:ba1:e8b9:363d%12</div></td></tr><tr><td><div>DataScienceVM</div></td></tr><tr><td><div>127.0.0.1</div></td></tr></table></div></td></tr><tr><td style="font-weight:bold;vertical-align:top;">web2py_version</td><td style="vertical-align:top;">:</td><td><div>2.13.4-stable+timestamp.2015.12.26.04.59.39</div></td></tr></table></div></td></tr><tr><td style="font-weight:bold;vertical-align:top;">is_https</td><td style="vertical-align:top;">:</td><td><div>False</div></td></tr><tr><td style="font-weight:bold;vertical-align:top;">is_local</td><td style="vertical-align:top;">:</td><td><div>True</div></td></tr><tr><td style="font-weight:bold;vertical-align:top;">is_restful</td><td style="vertical-align:top;">:</td><td><div>False</div></td></tr><tr><td style="font-weight:bold;vertical-align:top;">is_scheduler</td><td style="vertical-align:top;">:</td><td><div>False</div></td></tr><tr><td style="font-weight:bold;vertical-align:top;">is_shell</td><td style="vertical-align:top;">:</td><td><div>False</div></td></tr><tr><td style="font-weight:bold;vertical-align:top;">now</td><td style="vertical-align:top;">:</td><td><div>datetime.datetime(2016, 3, 22, 16, 21, 52, 734000)</div></td></tr><tr><td style="font-weight:bold;vertical-align:top;">url</td><td style="vertical-align:top;">:</td><td><div>/CUP</div></td></tr><tr><td style="font-weight:bold;vertical-align:top;">utcnow</td><td style="vertical-align:top;">:</td><td><div>datetime.datetime(2016, 3, 22, 15, 21, 52, 734000)</div></td></tr><tr><td style="font-weight:bold;vertical-align:top;">wsgi</td><td style="vertical-align:top;">:</td><td><div>&lt;gluon.main.LazyWSGI object at 0x0000000008CB8B70&gt;</div></td></tr></table></div>'
tRp58
sS'frames'
p59
(lp60
(dp61
S'file'
p62
S'C:\\Users\\Administrator.DATASCIENCEVM\\Dropbox\\______________myDevProjects\\myWebApps\\myWebApps\\web2py\\gluon\\restricted.py'
p63
sS'dump'
p64
(dp65
S'environment'
p66
S"{'A': <class 'gluon.html.A'>, 'ANY_OF': <class 'gluon.validators.ANY_OF'>, 'ASSIGNJS': <function ASSIGNJS>, 'Agente': <Table Agente (id,id_auth_user,codice,nome,cap,via,descrizione)>, 'AppConfig': <function AppConfig>, 'Auth': <class 'gluon.tools.Auth'>, 'B': <class 'gluon.html.B'>, 'BEAUTIFY': <class 'gluon.html.BEAUTIFY'>, 'BODY': <class 'gluon.html.BODY'>, 'BR': <class 'gluon.html.BR'>, ...}"
p67
sS'ccode'
p68
S'<code object <module> at 0000000008B089B0, file ...s\\web2py\\applications\\CUP\\models\\db.py", line 13>'
p69
ssS'lnum'
p70
I227
sS'lines'
p71
(dp72
I224
S'            ccode = code'
p73
sI225
S'        else:'
p74
sI226
S'            ccode = compile2(code, layer)'
p75
sI227
S'        exec ccode in environment'
p76
sI228
S'    except HTTP:'
p77
sI229
S'        raise'
p78
sI230
S'    except RestrictedError:'
p79
sI231
S'        # do not encapsulate (obfuscate) the original RestrictedError'
p80
sI222
S'    try:'
p81
sI223
S'        if isinstance(code, types.CodeType):'
p82
ssS'call'
p83
S"(code='# -*- coding: utf-8 -*-\\n\\n#######################...tings.extra_fields[auth_tablenames]=[Field_uuid]\\n', environment={'A': <class 'gluon.html.A'>, 'ANY_OF': <class 'gluon.validators.ANY_OF'>, 'ASSIGNJS': <function ASSIGNJS>, 'Agente': <Table Agente (id,id_auth_user,codice,nome,cap,via,descrizione)>, 'AppConfig': <function AppConfig>, 'Auth': <class 'gluon.tools.Auth'>, 'B': <class 'gluon.html.B'>, 'BEAUTIFY': <class 'gluon.html.BEAUTIFY'>, 'BODY': <class 'gluon.html.BODY'>, 'BR': <class 'gluon.html.BR'>, ...}, layer=r'C:\\Users\\Administrator.DATASCIENCEVM\\Dropbox\\___...ps\\myWebApps\\web2py\\applications\\CUP\\models\\db.py')"
p84
sS'func'
p85
S'restricted'
p86
sa(dp87
g62
S'C:\\Users\\Administrator.DATASCIENCEVM\\Dropbox\\______________myDevProjects\\myWebApps\\myWebApps\\web2py\\applications\\CUP\\models\\db.py'
p88
sg64
(dp89
S'db.Presentazione'
p90
S'undefined'
p91
sS'db'
p92
S'<DAL uri="sqlite://storage.sqlite">'
p93
ssg70
I416
sg71
(dp94
I416
S'db.Presentazione._enable_record_versioning()'
p95
sI417
S'db.Servizio._enable_record_versioning()'
p96
sI418
S'db.Servizio_disponibile._enable_record_versioning()'
p97
sI419
S'db.Soddisfazione._enable_record_versioning()'
p98
sI420
S'db.Stato_prestazione._enable_record_versioning()'
p99
sI411
S'#        continue'
p100
sI412
S''
sI413
S'db.Categoria_servizio._enable_record_versioning()'
p101
sI414
S'db.Cliente._enable_record_versioning()'
p102
sI415
S'db.Fornitore._enable_record_versioning()'
p103
ssg83
S'()'
p104
sg85
S'<module>'
p105
sa(dp106
g62
S'C:\\Users\\Administrator.DATASCIENCEVM\\Dropbox\\______________myDevProjects\\myWebApps\\myWebApps\\web2py\\gluon\\packages\\dal\\pydal\\base.py'
p107
sg64
(dp108
S'global BasicStorage'
p109
S"<class 'pydal.helpers.classes.BasicStorage'>"
p110
sS'self'
p111
S'<DAL uri="sqlite://storage.sqlite">'
p112
sS'BasicStorage.__getattribute__'
p113
S"<slot wrapper '__getattribute__' of 'object' objects>"
p114
sS'key'
p115
S"'Presentazione'"
p116
ssg70
I921
sg71
(dp117
I916
S'    def __getattr__(self, key):'
p118
sI917
S"        if object.__getattribute__(self, '_lazy_tables') and \\"
p119
sI918
S"                key in object.__getattribute__(self, '_LAZY_TABLES'):"
p120
sI919
S'            tablename, fields, args = self._LAZY_TABLES.pop(key)'
p121
sI920
S'            return self.lazy_define_table(tablename, *fields, **args)'
p122
sI921
S'        return BasicStorage.__getattribute__(self, key)'
p123
sI922
S''
sI923
S'    def __setattr__(self, key, value):'
p124
sI924
S"        if key[:1] != '_' and key in self:"
p125
sI925
S'            raise SyntaxError('
p126
ssg83
S'(self=<DAL uri="sqlite://storage.sqlite">, key=\'Presentazione\')'
p127
sg85
S'__getattr__'
p128
sasS'pyver'
p129
S'Python 2.7.11: C:\\Python27\\python.exe (prefix: C:\\Python27)'
p130
sS'session'
p131
g57
(S's\x1a\x00\x00\x00<div><table></table></div>'
tRp132
sS'etype'
p133
S"<type 'exceptions.AttributeError'>"
p134
sS'date'
p135
S'Tue Mar 22 16:21:53 2016'
p136
sS'response'
p137
g57
(S's\xfd\x16\x00\x00<div><table><tr><td style="font-weight:bold;vertical-align:top;">body</td><td style="vertical-align:top;">:</td><td><div>&lt;cStringIO.StringO object at 0x0000000008CB89D0&gt;</div></td></tr><tr><td style="font-weight:bold;vertical-align:top;">cookies</td><td style="vertical-align:top;">:</td><td><div><table><tr><td style="font-weight:bold;vertical-align:top;">session_id_cup</td><td style="vertical-align:top;">:</td><td><div>127.0.0.1-a8927c46-8db1-4bb8-8ef7-da578fa9d6bd<table><tr><td style="font-weight:bold;vertical-align:top;">comment</td><td style="vertical-align:top;">:</td><td><div></div></td></tr><tr><td style="font-weight:bold;vertical-align:top;">domain</td><td style="vertical-align:top;">:</td><td><div></div></td></tr><tr><td style="font-weight:bold;vertical-align:top;">expires</td><td style="vertical-align:top;">:</td><td><div></div></td></tr><tr><td style="font-weight:bold;vertical-align:top;">httponly</td><td style="vertical-align:top;">:</td><td><div></div></td></tr><tr><td style="font-weight:bold;vertical-align:top;">max-age</td><td style="vertical-align:top;">:</td><td><div></div></td></tr><tr><td style="font-weight:bold;vertical-align:top;">path</td><td style="vertical-align:top;">:</td><td><div>/</div></td></tr><tr><td style="font-weight:bold;vertical-align:top;">secure</td><td style="vertical-align:top;">:</td><td><div></div></td></tr><tr><td style="font-weight:bold;vertical-align:top;">version</td><td style="vertical-align:top;">:</td><td><div></div></td></tr></table></div></td></tr></table></div></td></tr><tr><td style="font-weight:bold;vertical-align:top;">delimiters</td><td style="vertical-align:top;">:</td><td><div><table><tr><td><div>{{</div></td></tr><tr><td><div>}}</div></td></tr></table></div></td></tr><tr><td style="font-weight:bold;vertical-align:top;">files</td><td style="vertical-align:top;">:</td><td><div><table></table></div></td></tr><tr><td style="font-weight:bold;vertical-align:top;">flash</td><td style="vertical-align:top;">:</td><td><div></div></td></tr><tr><td style="font-weight:bold;vertical-align:top;">form_label_separator</td><td style="vertical-align:top;">:</td><td><div></div></td></tr><tr><td style="font-weight:bold;vertical-align:top;">formstyle</td><td style="vertical-align:top;">:</td><td><div>bootstrap3_inline</div></td></tr><tr><td style="font-weight:bold;vertical-align:top;">generic_patterns</td><td style="vertical-align:top;">:</td><td><div><table><tr><td><div>*</div></td></tr></table></div></td></tr><tr><td style="font-weight:bold;vertical-align:top;">headers</td><td style="vertical-align:top;">:</td><td><div><table><tr><td style="font-weight:bold;vertical-align:top;">X-Powered-By</td><td style="vertical-align:top;">:</td><td><div>web2py</div></td></tr></table></div></td></tr><tr><td style="font-weight:bold;vertical-align:top;">menu</td><td style="vertical-align:top;">:</td><td><div><table></table></div></td></tr><tr><td style="font-weight:bold;vertical-align:top;">meta</td><td style="vertical-align:top;">:</td><td><div><table></table></div></td></tr><tr><td style="font-weight:bold;vertical-align:top;">models_to_run</td><td style="vertical-align:top;">:</td><td><div><table><tr><td><div>^\\w+\\.py$</div></td></tr><tr><td><div>^default/\\w+\\.py$</div></td></tr><tr><td><div>^default/index/\\w+\\.py$</div></td></tr></table></div></td></tr><tr><td style="font-weight:bold;vertical-align:top;">postprocessing</td><td style="vertical-align:top;">:</td><td><div><table></table></div></td></tr><tr><td style="font-weight:bold;vertical-align:top;">session_client</td><td style="vertical-align:top;">:</td><td><div>127.0.0.1</div></td></tr><tr><td style="font-weight:bold;vertical-align:top;">session_cookie_compression_level</td><td style="vertical-align:top;">:</td><td><div>None</div></td></tr><tr><td style="font-weight:bold;vertical-align:top;">session_cookie_expires</td><td style="vertical-align:top;">:</td><td><div>None</div></td></tr><tr><td style="font-weight:bold;vertical-align:top;">session_cookie_key</td><td style="vertical-align:top;">:</td><td><div>None</div></td></tr><tr><td style="font-weight:bold;vertical-align:top;">session_data_name</td><td style="vertical-align:top;">:</td><td><div>session_data_cup</div></td></tr><tr><td style="font-weight:bold;vertical-align:top;">session_file</td><td style="vertical-align:top;">:</td><td><div>None</div></td></tr><tr><td style="font-weight:bold;vertical-align:top;">session_filename</td><td style="vertical-align:top;">:</td><td><div>C:\\Users\\Administrator.DATASCIENCEVM\\Dropbox\\______________myDevProjects\\myWebApps\\myWebApps\\web2py\\applications\\CUP\\sessions\\127.0.0.1-a8927c46-8db1-4bb8-8ef7-da578fa9d6bd</div></td></tr><tr><td style="font-weight:bold;vertical-align:top;">session_hash</td><td style="vertical-align:top;">:</td><td><div>c0762cbf4baf7f9af97c051e7fcb8083</div></td></tr><tr><td style="font-weight:bold;vertical-align:top;">session_id</td><td style="vertical-align:top;">:</td><td><div>127.0.0.1-a8927c46-8db1-4bb8-8ef7-da578fa9d6bd</div></td></tr><tr><td style="font-weight:bold;vertical-align:top;">session_id_name</td><td style="vertical-align:top;">:</td><td><div>session_id_cup</div></td></tr><tr><td style="font-weight:bold;vertical-align:top;">session_masterapp</td><td style="vertical-align:top;">:</td><td><div>CUP</div></td></tr><tr><td style="font-weight:bold;vertical-align:top;">session_new</td><td style="vertical-align:top;">:</td><td><div>True</div></td></tr><tr><td style="font-weight:bold;vertical-align:top;">session_storage_type</td><td style="vertical-align:top;">:</td><td><div>file</div></td></tr><tr><td style="font-weight:bold;vertical-align:top;">status</td><td style="vertical-align:top;">:</td><td><div>200</div></td></tr><tr><td style="font-weight:bold;vertical-align:top;">view</td><td style="vertical-align:top;">:</td><td><div>default/index.html</div></td></tr></table></div>'
tRp138
sS'locals'
p139
(dp140
S'self'
p141
S'<DAL uri="sqlite://storage.sqlite">'
p142
sS'key'
p143
S"'Presentazione'"
p144
sssS'traceback'
p145
S'Traceback (most recent call last):\n  File "C:\\Users\\Administrator.DATASCIENCEVM\\Dropbox\\______________myDevProjects\\myWebApps\\myWebApps\\web2py\\gluon\\restricted.py", line 227, in restricted\n    exec ccode in environment\n  File "C:\\Users\\Administrator.DATASCIENCEVM\\Dropbox\\______________myDevProjects\\myWebApps\\myWebApps\\web2py\\applications\\CUP\\models\\db.py", line 416, in <module>\n    db.Presentazione._enable_record_versioning()\n  File "C:\\Users\\Administrator.DATASCIENCEVM\\Dropbox\\______________myDevProjects\\myWebApps\\myWebApps\\web2py\\gluon\\packages\\dal\\pydal\\base.py", line 921, in __getattr__\n    return BasicStorage.__getattribute__(self, key)\nAttributeError: \'DAL\' object has no attribute \'Presentazione\'\n'
p146
s.