(dp1
S'output'
p2
S"<type 'exceptions.IOError'> [Errno 2] No such file or directory: 'Comune.csv'"
p3
sS'layer'
p4
S'C:\\Users\\Administrator.DATASCIENCEVM\\Dropbox\\______________myDevProjects\\myWebApps\\myWebApps\\web2py\\applications\\CUP\\models\\db.py'
p5
sS'code'
p6
S'# -*- coding: utf-8 -*-\n\n#########################################################################\n## This scaffolding model makes your app work on Google App Engine too\n## File is released under public domain and you can use without limitations\n#########################################################################\n\n## if SSL/HTTPS is properly configured and you want all HTTP requests to\n## be redirected to HTTPS, uncomment the line below:\n# request.requires_https()\n\n## app configuration made easy. Look inside private/appconfig.ini\nfrom gluon.contrib.appconfig import AppConfig\n## once in production, remove reload=True to gain full speed\nmyconf = AppConfig(reload=True)\n\n\nif not request.env.web2py_runtime_gae:\n    ## if NOT running on Google App Engine use SQLite or other DB\n    db = DAL(myconf.take(\'db.uri\'), pool_size=myconf.take(\'db.pool_size\', cast=int), check_reserved=[\'all\']) #qui potrei mettere migrate=False\nelse:\n    ## connect to Google BigTable (optional \'google:datastore://namespace\')\n    db = DAL(\'google:datastore+ndb\')\n    ## store sessions and tickets there\n    session.connect(request, response, db=db)\n    ## or store session in Memcache, Redis, etc.\n    ## from gluon.contrib.memdb import MEMDB\n    ## from google.appengine.api.memcache import Client\n    ## session.connect(request, response, db = MEMDB(Client()))\n\n## by default give a view/generic.extension to all actions from localhost\n## none otherwise. a pattern can be \'controller/function.extension\'\nresponse.generic_patterns = [\'*\'] if request.is_local else []\n## choose a style for forms\nresponse.formstyle = myconf.take(\'forms.formstyle\')  # or \'bootstrap3_stacked\' or \'bootstrap2\' or other\nresponse.form_label_separator = myconf.take(\'forms.separator\')\n\n\n## (optional) optimize handling of static files\n# response.optimize_css = \'concat,minify,inline\'\n# response.optimize_js = \'concat,minify,inline\'\n## (optional) static assets folder versioning\n# response.static_version = \'0.0.0\'\n#########################################################################\n## Here is sample code if you need for\n## - email capabilities\n## - authentication (registration, login, logout, ... )\n## - authorization (role based authorization)\n## - services (xml, csv, json, xmlrpc, jsonrpc, amf, rss)\n## - old style crud actions\n## (more options discussed in gluon/tools.py)\n#########################################################################\n\nfrom gluon.tools import Auth, Service, PluginManager\n\nauth = Auth(db)\nservice = Service()\nplugins = PluginManager()\n\n## create all tables needed by auth if not custom tables\nauth.define_tables(username=False, signature=False)\n\n## configure email\nmail = auth.settings.mailer\nmail.settings.server = \'logging\' if request.is_local else myconf.take(\'smtp.server\')\nmail.settings.sender = myconf.take(\'smtp.sender\')\nmail.settings.login = myconf.take(\'smtp.login\')\n\n## configure auth policy\nauth.settings.registration_requires_verification = False\nauth.settings.registration_requires_approval = False\nauth.settings.reset_password_requires_verification = True\n\n#########################################################################\n## Define your tables below (or better in another model file) for example\n##\n## >>> db.define_table(\'mytable\',Field(\'myfield\',\'string\'))\n##\n## Fields can be \'string\',\'text\',\'password\',\'integer\',\'double\',\'boolean\'\n##       \'date\',\'time\',\'datetime\',\'blob\',\'upload\', \'reference TABLENAME\'\n## There is an implicit \'id integer autoincrement\' field\n## Consult manual for more options, validators, etc.\n##\n## More API examples for controllers:\n##\n## >>> db.mytable.insert(myfield=\'value\')\n## >>> rows=db(db.mytable.myfield==\'value\').select(db.mytable.ALL)\n## >>> for row in rows: print row.id, row.myfield\n#########################################################################\n\n# My application DB\n# WARNING: notnull=True, default=\'NULL\' is a contradition and generates a strange error after some lines !!!!\n# The following source code was generated by SQLDesigner and reordered to avoid missing reference (eg. Servizio must come before Categoria_servizio which refers to it)\n\n\n#mie variabili\nvaloreNonDefinito=None\nmostraCodiceNome=\' %(codice)s %(nome)s\'\n\n#schema DB creato a partire da (ma non identico a) schema ER del 16/03/2016\n\n#abilito il versioning del db\nauth.enable_record_versioning(db)\n\n#campi comuni a tutte le tabelle\ndb._common_fields.append(auth.signature)\n\n#tabelle e relazioni\ndb.define_table("Categoria_servizio",\n    Field("codice", "string", default=valoreNonDefinito,length=3),\n    Field("nome", "string", default=valoreNonDefinito))#,\n    #migrate=False)\n\ndb.define_table("Stato_prestazione",\n    Field("codice", "string", notnull=True, default=valoreNonDefinito, length=3),\n    Field("nome", "string", default=valoreNonDefinito))\n\ndb.define_table("Comune")\nif db(db.Comune.id>0).isempty():\n    db.Comune.import_from_csv_file(open(\'Comune.csv\',\'r\'))\n\nAgente = db.Table(db,"Agente",\n    Field("id_auth_user", "reference auth_user"),\n    Field("codice", "string", default=valoreNonDefinito),\n    Field("nome", "string", default=valoreNonDefinito),\n    Field("cap", "string", default=\'00000\', length=5),\n    Field("via", "string", default=valoreNonDefinito),\n#    Field("id_Comune", "reference Comune"),\n    Field("descrizione", "text", default=valoreNonDefinito))\nAgente.id_auth_user.requires=IS_IN_DB( db, \'auth_user.id\', \' %(auth_user.email)s %(auth_user.name)s\') \n#Agente.id_auth_user.requires=IS_IN_DB( db, \'comune.id\', \' %(Denominazione in italiano)s %(auth_user.name)s\') \n\ndb.define_table("Cliente", \n    Agente)\ndb.define_table("Fornitore", \n    Agente)\n\n#il codice precedente \xc3\xa8 equivalente a \n#db.define_table("Cliente",\n#    Field("id_auth_user", "reference auth_user"),\n#    Field("codice", "string", default=valoreNonDefinito),\n#    Field("nome", "string", default=None),\n#    Field("cap", "string", default=\'00000\', length=5),\n#    Field("via", "string", default=None),\n#    Field("descrizione", "text", default=None))\n#db.define_table("Fornitore",\n#    Field("id_auth_user", "reference auth_user"),\n#    Field("codice", "string", default=valoreNonDefinito),\n#    Field("nome", "string", default=None),\n#    Field("cap", "string", default=\'00000\', length=5),\n#    Field("via", "string", default=None),\n#    Field("descrizione", "text", default=None))\n#db.Cliente.id_auth_user.requires=IS_IN_DB( db, \'auth_user.id\', \'\')\n#db.Fornitore.id_auth_user.requires=IS_IN_DB( db, \'auth_user.id\', \'\')\n\ndb.define_table("Servizio",\n    Field("id_Categoria_servizio", "reference Categoria_servizio"),\n    Field("codice", "string", default=valoreNonDefinito),\n    Field("nome", "string", default=valoreNonDefinito),\n    Field("descrizione", "text", default=valoreNonDefinito),\n    Field("prezzo_SSR", "integer", default=valoreNonDefinito),\n    Field("ticket_SSR", "double", default=valoreNonDefinito))\ndb.Servizio.id_Categoria_servizio.requires=IS_IN_DB( db, \'Categoria_servizio.id\', mostraCodiceNome)\n\ndb.define_table("Prestazione",\n    Field("id_Servizio", "reference Servizio"),\n    Field("id_Fornitore", "reference Fornitore"),\n    Field("id_Cliente", "reference Cliente"),\n    Field("id_Stato_prestazione", "reference Stato_prestazione"),\n    Field("messaggio_utente", "text", default=valoreNonDefinito),\n    Field("messaggio_studio", "text", default=valoreNonDefinito),\n    Field("servizio_richiesto_disponibile", "boolean", default=valoreNonDefinito),\n    Field("giorno", "date", default=valoreNonDefinito),\n    Field("ora", "time", default=valoreNonDefinito),\n    Field("prezzo", "double", default=valoreNonDefinito))\ndb.Prestazione.id_Servizio.requires=IS_IN_DB( db, \'Servizio.id\', mostraCodiceNome)\ndb.Prestazione.id_Fornitore.requires=IS_IN_DB( db, \'Fornitore.id\', mostraCodiceNome)\ndb.Prestazione.id_Cliente.requires=IS_IN_DB( db, \'Cliente.id\', mostraCodiceNome)\ndb.Prestazione.id_Stato_prestazione.requires=IS_IN_DB( db, \'Stato_prestazione.id\', mostraCodiceNome)\n\ndb.define_table("Servizio_disponibile",\n    Field("id_Servizio", "reference Servizio"),\n    Field("id_Fornitore", "reference Fornitore"),\n    Field("id_Categoria_servizio", "reference Categoria_servizio"),\n    Field("Lunedi_mattina", "boolean", default=valoreNonDefinito),\n    Field("Lunedi_pomeriggio", "boolean", default=valoreNonDefinito),\n    Field("Martedi_mattina", "boolean", default=valoreNonDefinito),\n    Field("Martedi_pomeriggio", "boolean", default=valoreNonDefinito),\n    Field("Mercoledi_mattina", "boolean", default=valoreNonDefinito),\n    Field("Mercoledi_pomeriggio", "boolean", default=valoreNonDefinito),\n    Field("Giovedi_mattina", "boolean", default=valoreNonDefinito),\n    Field("Giovedi_pomeriggio", "boolean", default=valoreNonDefinito),\n    Field("Venerdi_mattina", "boolean", default=valoreNonDefinito),\n    Field("Venerdi_pomeriggio", "boolean", default=valoreNonDefinito),\n    Field("Sabato_mattina", "boolean", default=valoreNonDefinito),\n    Field("Sabato_pomeriggio", "boolean", default=valoreNonDefinito),\n    Field("Domenica_mattina", "boolean", default=valoreNonDefinito),\n    Field("Domenica_pomeriggio", "boolean", default=valoreNonDefinito),\n    Field("prezzo_listino", "double", default=valoreNonDefinito),\n    Field("prezzo_medio", "integer", default=valoreNonDefinito))\ndb.Servizio_disponibile.id_Servizio.requires=IS_IN_DB( db, \'Servizio.id\', mostraCodiceNome)\ndb.Servizio_disponibile.id_Fornitore.requires=IS_IN_DB( db, \'Fornitore.id\', mostraCodiceNome)\ndb.Servizio_disponibile.id_Categoria_servizio.requires=IS_IN_DB( db, \'Categoria_servizio.id\', mostraCodiceNome)\n\ndb.define_table("Soddisfazione",\n    Field("punteggio_cliente", "integer", default=valoreNonDefinito),\n    Field("commento_cliente", "text", default=valoreNonDefinito),\n    Field("commento_fornitore", "text", default=valoreNonDefinito),\n    Field("commento_cliente_pubblicato", "text", default=valoreNonDefinito),\n    Field("commento_fornitore_pubblicato", "text", default=valoreNonDefinito),\n    Field("id_Fornitore", "reference Fornitore"),\n    Field("id_Cliente", "reference Cliente"),\n    Field("pubblicato", "boolean", default=valoreNonDefinito))\ndb.Soddisfazione.id_Fornitore.requires=IS_IN_DB( db, \'Fornitore.id\', mostraCodiceNome)\ndb.Soddisfazione.id_Cliente.requires=IS_IN_DB( db, \'Cliente.id\', mostraCodiceNome)\n\n""" Relations between tables (remove fields you don\'t need from requires) """\n#db.Agente.id_auth_user.requires=IS_IN_DB( db, \'auth_user.id\', \'\') \n# equivalente a \n#db.Cliente.id_auth_user.requires=IS_IN_DB( db, \'auth_user.id\', \'\')\n#db.Fornitore.id_auth_user.requires=IS_IN_DB( db, \'auth_user.id\', \'\')\n#db.Servizio.id_Categoria_servizio.requires=IS_IN_DB( db, \'Categoria_servizio.id\', \' %(codice)s\')\n#db.Prestazione.id_Servizio.requires=IS_IN_DB( db, \'Servizio.id\', \' %(id_Categoria_servizio)s %(codice)s %(nome)s %(descrizione)s %(prezzo_SSR)s %(ticket_SSR)s\')\n#db.Prestazione.id_Fornitore.requires=IS_IN_DB( db, \'Fornitore.id\', \' %(id_auth_user)s %(codice)s %(nome)s %(cap)s %(via)s %(descrizione)s\')\n#db.Prestazione.id_Cliente.requires=IS_IN_DB( db, \'Cliente.id\', \' %(id_auth_user)s %(codice)s %(nome)s %(cap)s %(via)s %(descrizione)s\')\n#db.Prestazione.id_Stato_prestazione.requires=IS_IN_DB( db, \'Stato_prestazione.id\', \' %(codice)s\')\n#db.Servizio_disponibile.id_Servizio.requires=IS_IN_DB( db, \'Servizio.id\', \' %(id_Categoria_servizio)s %(codice)s %(nome)s %(descrizione)s %(prezzo_SSR)s %(ticket_SSR)s\')\n#db.Servizio_disponibile.id_Fornitore.requires=IS_IN_DB( db, \'Fornitore.id\', \' %(id_auth_user)s %(codice)s %(nome)s %(cap)s %(via)s %(descrizione)s\')\n#db.Servizio_disponibile.id_Categoria_servizio.requires=IS_IN_DB( db, \'Categoria_servizio.id\', \' %(codice)s\')\n#db.Soddisfazione.id_Fornitore.requires=IS_IN_DB( db, \'Fornitore.id\', \' %(id_auth_user)s %(codice)s %(nome)s %(cap)s %(via)s %(descrizione)s\')\n#db.Soddisfazione.id_Cliente.requires=IS_IN_DB( db, \'Cliente.id\', \' %(id_auth_user)s %(codice)s %(nome)s %(cap)s %(via)s %(descrizione)s\')\n\n#DB basato su schema del 12 marzo 2016\n#db.define_table("Categoria_servizio",\n#    Field("codice", "string", default=None),\n#    Field("codice_numerico", "string", default=None))\n\n#db.define_table("Stato_prestazione",\n#    Field("codice", "string", notnull=True, default=\'Richiesta\'),\n#    Field("codice_numerico", "integer", notnull=True, default=1))\n\n#db.define_table("Previsioni_servizio_disponibile",\n#    Field("link_informazioni", "string", default=None),\n#    Field("prezzo_medio", "double", default=None),\n#    Field("tempo_lista_attesa_medio", "double", default=None),\n#    Field("tempo_attesa_medio", "double", default=None),\n#    Field("tempo_durata_medio", "double", default=None),\n#    Field("tempo_informazione_medio", "double", default=None),\n#    Field("probabilita_efficienza_organizzativa", "double", default=None),\n#    Field("probabilita_efficienza_comunicativa", "double", default=None))\n\n##db.define_table("auth_user",)\n\n#db.define_table("Cliente",\n#    Field("id_auth_user", "reference auth_user"),\n#    Field("codice", "string", default=None),\n#    Field("codice_numerico", "string", default=None),\n#    Field("nome", "string", default=None),\n#    Field("cap", "string", default=None),\n#    Field("via", "string", default=None),\n#    Field("descrizione", "text", default=None),\n#    Field("link_informazioni", "string", default=None))\n\n#db.define_table("Fornitore",\n#    Field("id_auth_user", "reference auth_user"),\n#    Field("codice", "string", default=None),\n#    Field("codice_numerico", "string", default=None),\n#    Field("nome", "string", default=None),\n#    Field("cap", "string", default=None),\n#    Field("via", "string", default=None),\n#    Field("descrizione", "text", default=None),\n#    Field("link_informazioni", "string", default=None))\n\n#db.define_table("Servizio",\n#     Field("id_Categoria_servizio", "reference Categoria_servizio"),\n#     Field("codice", "string", default=None),\n#     Field("codicenumerico", "integer", default=None),\n#     Field("nome", "string", default=None),\n#     Field("descrizione", "text", default=None),\n#     Field("link_informazioni", "string", default=None),\n#     Field("consenso_informato_da_firmare", "boolean", default=None))\n\n#db.define_table("Prestazione",\n#     Field("id_Servizio", "reference Servizio"),\n#     Field("id_Fornitore", "reference Fornitore"),\n#     Field("id_Cliente", "reference Cliente"),\n#     Field("id_Stato_prestazione", "reference Stato_prestazione"),\n#     Field("messaggio_utente", "text", default=None),\n#     Field("messaggio_studio", "text", default=None),\n#     Field("servizio_richiesto_non_disponibile", "boolean", default=None),\n#     Field("servizio_richiesto_con_codice_esenzione", "boolean", default=None),\n#     Field("codice_esenzione", "string", default=None),\n#     Field("giorno", "date", default=None),\n#     Field("ora", "time", default=None),\n#     Field("prezzo_SSR", "double", default=None),\n#     Field("ticket_SSR", "integer", default=None),\n#     Field("prezzo_fornitore", "double", default=None),\n#     Field("IVA", "double", default=None),\n#     Field("prezzo_bolli", "integer", default=None))\n\n#db.define_table("Servizio_disponibile",\n#    Field("id_Servizio", "reference Servizio"),\n#    Field("id_Fornitore", "reference Fornitore"),\n#    Field("id_Categoria_servizio", "reference Categoria_servizio"),\n#    Field("id_Previsioni_servizio_disponibile", "reference Previsioni_servizio_disponibile"),\n#    Field("Lunedi_mattina", "boolean", default=None),\n#    Field("Lunedi_pomeriggio", "boolean", default=None),\n#    Field("Martedi_mattina", "boolean", default=None),\n#    Field("Martedi_pomeriggio", "boolean", default=None),\n#    Field("Mercoledi_mattina", "boolean", default=None),\n#    Field("Mercoledi_pomeriggio", "boolean", default=None),\n#    Field("Giovedi_mattina", "boolean", default=None),\n#    Field("Giovedi_pomeriggio", "boolean", default=None),\n#    Field("Venerdi_mattina", "boolean", default=None),\n#    Field("Venerdi_pomeriggio", "boolean", default=None),\n#    Field("Sabato_mattina", "boolean", default=None),\n#    Field("Sabato_pomeriggio", "boolean", default=None),\n#    Field("Domenica_mattina", "boolean", default=None),\n#    Field("Domenica_pomeriggio", "boolean", default=None),\n#    Field("prezzo_locale", "integer", default=None))\n\n#db.define_table("Performance",\n#    Field("id_Prestazione", "reference Prestazione"),\n#    Field("data_effettiva", "date", default=None),\n#    Field("ora_effettiva", "time", default=None),\n#    Field("prezzo_pagato", "integer", default=None),\n#    Field("tempo_attesa", "double", default=None),\n#    Field("tempo_esecuzione", "double", default=None),\n#    Field("tempo_informazione", "double", default=None),\n#    Field("informazioni_fornite_a_voce", "boolean", default=None),\n#    Field("informazioni_fornite_con_mezzi_di_supporto", "boolean", default=None),\n#    Field("consenso_informato_firmato", "boolean", default=None))\n\n#db.define_table("Soddisfazione",\n#    Field("id_Prestazione", "reference Prestazione"),\n#    Field("punteggio_cliente", "integer", default=None),\n#    Field("commento_cliente", "text", default=None),\n#    Field("commento_fornitore", "text", default=None),\n#    Field("commento_cliente_pubblicato", "text", default=None),\n#    Field("commento_fornitore_pubblicato", "text", default=None))\n\n#db.define_table("Prezzi_SSR",\n#    Field("id_Servizio", "reference Servizio"),\n#    Field("codice_regione", "integer", default=None),\n#    Field("nome_regione", "integer", default=None),\n#    Field("prezzo_al_cliente", "double", default=None),\n#    Field("ticket", "integer", default=None),\n#    Field("prezzo_al_fornitore", "double", default=None),\n#    Field("data_inizio", "date", default=None),\n#    Field("in_vigore", "boolean", default=1),\n#    Field("data_fine", "date", default=None))\n\n#""" Relations between tables (remove fields you don\'t need from requires) """\n#db.Cliente.id_auth_user.requires=IS_IN_DB( db, \'auth_user.id\', \'\')\n#db.Fornitore.id_auth_user.requires=IS_IN_DB( db, \'auth_user.id\', \'\')\n#db.Servizio.id_Categoria_servizio.requires=IS_IN_DB( db, \'Categoria_servizio.id\', \' %(codice)s %(codice_numerico)s\')\n#db.Prestazione.id_Servizio.requires=IS_IN_DB( db, \'Servizio.id\', \' %(id_Categoria_servizio)s %(codice)s %(codice_numerico)s %(nome)s %(descrizione)s %(link_informazioni)s %(consenso_informato_da_firmare)s\')\n#db.Prestazione.id_Fornitore.requires=IS_IN_DB( db, \'Fornitore.id\', \' %(id_auth_user)s %(codice)s %(codice_numerico)s %(nome)s %(cap)s %(via)s %(descrizione)s %(link_informazioni)s\')\n#db.Prestazione.id_Cliente.requires=IS_IN_DB( db, \'Cliente.id\', \' %(id_auth_user)s %(codice)s %(codice_numerico)s %(nome)s %(cap)s %(via)s %(descrizione)s %(link_informazioni)s\')\n#db.Prestazione.id_Stato_prestazione.requires=IS_IN_DB( db, \'Stato_prestazione.id\', \' %(codice)s %(codice_numerico)s\')\n#db.Servizio_disponibile.id_Servizio.requires=IS_IN_DB( db, \'Servizio.id\', \' %(id_Categoria_servizio)s %(codice)s %(codice_numerico)s %(nome)s %(descrizione)s %(link_informazioni)s %(consenso_informato_da_firmare)s\')\n#db.Servizio_disponibile.id_Fornitore.requires=IS_IN_DB( db, \'Fornitore.id\', \' %(id_auth_user)s %(codice)s %(codice_numerico)s %(nome)s %(cap)s %(via)s %(descrizione)s %(link_informazioni)s\')\n#db.Servizio_disponibile.id_Categoria_servizio.requires=IS_IN_DB( db, \'Categoria_servizio.id\', \' %(codice)s %(codice_numerico)s\')\n#db.Servizio_disponibile.id_Previsioni_servizio_disponibile.requires=IS_IN_DB( db, \'Previsioni_servizio_disponibile.id\', \' %(link_informazioni)s %(prezzo_medio)s %(tempo_lista_attesa_medio)s %(tempo_attesa_medio)s %(tempo_durata_medio)s %(tempo_informazione_medio)s %(probabilita_efficienza_organizzativa)s %(probabilita_efficienza_comunicativa)s\')\n#db.Performance.id_Prestazione.requires=IS_IN_DB( db, \'Prestazione.id\', \' %(id_Servizio)s %(id_Fornitore)s %(id_Cliente)s %(id_Stato_prestazione)s %(messaggio_utente)s %(messaggio_studio)s %(servizio_richiesto_non_disponibile)s %(servizio_richiesto_con_codice_esenzione)s %(codice_esenzione)s %(data)s %(ora)s %(prezzo_SSR)s %(ticket_SSR)s %(prezzo_fornitore)s %(IVA)s %(prezzo_bolli)s\')\n#db.Soddisfazione.id_Prestazione.requires=IS_IN_DB( db, \'Prestazione.id\', \' %(id_Servizio)s %(id_Fornitore)s %(id_Cliente)s %(id_Stato_prestazione)s %(messaggio_utente)s %(messaggio_studio)s %(servizio_richiesto_non_disponibile)s %(servizio_richiesto_con_codice_esenzione)s %(codice_esenzione)s %(data)s %(ora)s %(prezzo_SSR)s %(ticket_SSR)s %(prezzo_fornitore)s %(IVA)s %(prezzo_bolli)s\')\n#db.Prezzi_SSR.id_Servizio.requires=IS_IN_DB( db, \'Servizio.id\', \' %(id_Categoria_servizio)s %(codice)s %(codice_numerico)s %(nome)s %(descrizione)s %(link_informazioni)s %(consenso_informato_da_firmare)s\')\n\n\n# end generated source code from SQLDesigner\n## after defining tables, uncomment below to enable auditing\n# auth.enable_record_versioning(db)'
p7
sS'snapshot'
p8
(dp9
S'exception'
p10
(dp11
S'__getslice__'
p12
S"<method-wrapper '__getslice__' of exceptions.IOError object>"
p13
sS'__str__'
p14
S"<method-wrapper '__str__' of exceptions.IOError object>"
p15
sS'__reduce__'
p16
S'<built-in method __reduce__ of exceptions.IOError object>'
p17
sS'__dict__'
p18
S'{}'
p19
sS'__sizeof__'
p20
S'<built-in method __sizeof__ of exceptions.IOError object>'
p21
sS'__init__'
p22
S"<method-wrapper '__init__' of exceptions.IOError object>"
p23
sS'__setattr__'
p24
S"<method-wrapper '__setattr__' of exceptions.IOError object>"
p25
sS'__reduce_ex__'
p26
S'<built-in method __reduce_ex__ of exceptions.IOError object>'
p27
sS'__new__'
p28
S'<built-in method __new__ of type object>'
p29
sS'errno'
p30
S'2'
sS'__format__'
p31
S'<built-in method __format__ of exceptions.IOError object>'
p32
sS'__class__'
p33
S"<type 'exceptions.IOError'>"
p34
sS'filename'
p35
S"'Comune.csv'"
p36
sS'__doc__'
p37
S"'I/O operation failed.'"
p38
sS'__getitem__'
p39
S"<method-wrapper '__getitem__' of exceptions.IOError object>"
p40
sS'__setstate__'
p41
S'<built-in method __setstate__ of exceptions.IOError object>'
p42
sS'__getattribute__'
p43
S"<method-wrapper '__getattribute__' of exceptions.IOError object>"
p44
sS'args'
p45
S"(2, 'No such file or directory')"
p46
sS'__subclasshook__'
p47
S'<built-in method __subclasshook__ of type object>'
p48
sS'__unicode__'
p49
S'<built-in method __unicode__ of exceptions.IOError object>'
p50
sS'strerror'
p51
S"'No such file or directory'"
p52
sS'__delattr__'
p53
S"<method-wrapper '__delattr__' of exceptions.IOError object>"
p54
sS'__repr__'
p55
S"<method-wrapper '__repr__' of exceptions.IOError object>"
p56
sS'__hash__'
p57
S"<method-wrapper '__hash__' of exceptions.IOError object>"
p58
ssS'evalue'
p59
S"[Errno 2] No such file or directory: 'Comune.csv'"
p60
sS'request'
p61
cgluon.html
XML_unpickle
p62
(S's\xdc\\\x00\x00<div><table><tr><td style="font-weight:bold;vertical-align:top;">ajax</td><td style="vertical-align:top;">:</td><td><div>False</div></td></tr><tr><td style="font-weight:bold;vertical-align:top;">application</td><td style="vertical-align:top;">:</td><td><div>CUP</div></td></tr><tr><td style="font-weight:bold;vertical-align:top;">args</td><td style="vertical-align:top;">:</td><td><div><table></table></div></td></tr><tr><td style="font-weight:bold;vertical-align:top;">cid</td><td style="vertical-align:top;">:</td><td><div>None</div></td></tr><tr><td style="font-weight:bold;vertical-align:top;">client</td><td style="vertical-align:top;">:</td><td><div>127.0.0.1</div></td></tr><tr><td style="font-weight:bold;vertical-align:top;">controller</td><td style="vertical-align:top;">:</td><td><div>default</div></td></tr><tr><td style="font-weight:bold;vertical-align:top;">cookies</td><td style="vertical-align:top;">:</td><td><div><table><tr><td style="font-weight:bold;vertical-align:top;">session_id_admin</td><td style="vertical-align:top;">:</td><td><div>127.0.0.1-bae02e0a-9175-4fab-aadf-362d6f8080db<table><tr><td style="font-weight:bold;vertical-align:top;">comment</td><td style="vertical-align:top;">:</td><td><div></div></td></tr><tr><td style="font-weight:bold;vertical-align:top;">domain</td><td style="vertical-align:top;">:</td><td><div></div></td></tr><tr><td style="font-weight:bold;vertical-align:top;">expires</td><td style="vertical-align:top;">:</td><td><div></div></td></tr><tr><td style="font-weight:bold;vertical-align:top;">httponly</td><td style="vertical-align:top;">:</td><td><div></div></td></tr><tr><td style="font-weight:bold;vertical-align:top;">max-age</td><td style="vertical-align:top;">:</td><td><div></div></td></tr><tr><td style="font-weight:bold;vertical-align:top;">path</td><td style="vertical-align:top;">:</td><td><div></div></td></tr><tr><td style="font-weight:bold;vertical-align:top;">secure</td><td style="vertical-align:top;">:</td><td><div></div></td></tr><tr><td style="font-weight:bold;vertical-align:top;">version</td><td style="vertical-align:top;">:</td><td><div></div></td></tr></table></div></td></tr><tr><td style="font-weight:bold;vertical-align:top;">session_id_cup</td><td style="vertical-align:top;">:</td><td><div>127.0.0.1-158ccc9b-15fb-4af3-83f7-b6645c7635fa<table><tr><td style="font-weight:bold;vertical-align:top;">comment</td><td style="vertical-align:top;">:</td><td><div></div></td></tr><tr><td style="font-weight:bold;vertical-align:top;">domain</td><td style="vertical-align:top;">:</td><td><div></div></td></tr><tr><td style="font-weight:bold;vertical-align:top;">expires</td><td style="vertical-align:top;">:</td><td><div></div></td></tr><tr><td style="font-weight:bold;vertical-align:top;">httponly</td><td style="vertical-align:top;">:</td><td><div></div></td></tr><tr><td style="font-weight:bold;vertical-align:top;">max-age</td><td style="vertical-align:top;">:</td><td><div></div></td></tr><tr><td style="font-weight:bold;vertical-align:top;">path</td><td style="vertical-align:top;">:</td><td><div></div></td></tr><tr><td style="font-weight:bold;vertical-align:top;">secure</td><td style="vertical-align:top;">:</td><td><div></div></td></tr><tr><td style="font-weight:bold;vertical-align:top;">version</td><td style="vertical-align:top;">:</td><td><div></div></td></tr></table></div></td></tr></table></div></td></tr><tr><td style="font-weight:bold;vertical-align:top;">env</td><td style="vertical-align:top;">:</td><td><div><table><tr><td style="font-weight:bold;vertical-align:top;">HTTP_ACCEPT</td><td style="vertical-align:top;">:</td><td><div>text/html, application/xhtml+xml, */*</div></td></tr><tr><td style="font-weight:bold;vertical-align:top;">HTTP_ACCEPT_ENCODING</td><td style="vertical-align:top;">:</td><td><div>gzip, deflate, peerdist</div></td></tr><tr><td style="font-weight:bold;vertical-align:top;">HTTP_ACCEPT_LANGUAGE</td><td style="vertical-align:top;">:</td><td><div>it-IT</div></td></tr><tr><td style="font-weight:bold;vertical-align:top;">HTTP_CONNECTION</td><td style="vertical-align:top;">:</td><td><div>Keep-Alive</div></td></tr><tr><td style="font-weight:bold;vertical-align:top;">HTTP_COOKIE</td><td style="vertical-align:top;">:</td><td><div>session_id_admin=127.0.0.1-bae02e0a-9175-4fab-aadf-362d6f8080db; session_id_cup=127.0.0.1-158ccc9b-15fb-4af3-83f7-b6645c7635fa</div></td></tr><tr><td style="font-weight:bold;vertical-align:top;">HTTP_HOST</td><td style="vertical-align:top;">:</td><td><div>localhost:8080</div></td></tr><tr><td style="font-weight:bold;vertical-align:top;">HTTP_REFERER</td><td style="vertical-align:top;">:</td><td><div>http://localhost:8080/admin/site</div></td></tr><tr><td style="font-weight:bold;vertical-align:top;">HTTP_USER_AGENT</td><td style="vertical-align:top;">:</td><td><div>Mozilla/5.0 (Windows NT 6.3; WOW64; Trident/7.0; Touch; rv:11.0) like Gecko</div></td></tr><tr><td style="font-weight:bold;vertical-align:top;">HTTP_X_P2P_PEERDIST</td><td style="vertical-align:top;">:</td><td><div>Version=1.1</div></td></tr><tr><td style="font-weight:bold;vertical-align:top;">HTTP_X_P2P_PEERDISTEX</td><td style="vertical-align:top;">:</td><td><div>MinContentInformation=1.0, MaxContentInformation=2.0</div></td></tr><tr><td style="font-weight:bold;vertical-align:top;">PATH_INFO</td><td style="vertical-align:top;">:</td><td><div>/CUP</div></td></tr><tr><td style="font-weight:bold;vertical-align:top;">QUERY_STRING</td><td style="vertical-align:top;">:</td><td><div></div></td></tr><tr><td style="font-weight:bold;vertical-align:top;">REMOTE_ADDR</td><td style="vertical-align:top;">:</td><td><div>127.0.0.1</div></td></tr><tr><td style="font-weight:bold;vertical-align:top;">REMOTE_PORT</td><td style="vertical-align:top;">:</td><td><div>50918</div></td></tr><tr><td style="font-weight:bold;vertical-align:top;">REQUEST_METHOD</td><td style="vertical-align:top;">:</td><td><div>GET</div></td></tr><tr><td style="font-weight:bold;vertical-align:top;">SCRIPT_NAME</td><td style="vertical-align:top;">:</td><td><div></div></td></tr><tr><td style="font-weight:bold;vertical-align:top;">SERVER_NAME</td><td style="vertical-align:top;">:</td><td><div>DataScienceVM</div></td></tr><tr><td style="font-weight:bold;vertical-align:top;">SERVER_PORT</td><td style="vertical-align:top;">:</td><td><div>8080</div></td></tr><tr><td style="font-weight:bold;vertical-align:top;">SERVER_PROTOCOL</td><td style="vertical-align:top;">:</td><td><div>HTTP/1.1</div></td></tr><tr><td style="font-weight:bold;vertical-align:top;">SERVER_SOFTWARE</td><td style="vertical-align:top;">:</td><td><div>Rocket 1.2.6</div></td></tr><tr><td style="font-weight:bold;vertical-align:top;">app_folders</td><td style="vertical-align:top;">:</td><td><div>set([&#x27;C:\\\\Users\\\\Administrator.DATASCIENCEVM\\\\Dropbox\\\\______________myDevProjects\\\\myWebApps\\\\myWebApps\\\\web2py\\\\applications\\\\admin\\\\&#x27;, &#x27;C:\\\\Users\\\\Administrator.DATASCIENCEVM\\\\Dropbox\\\\______________myDevProjects\\\\myWebApps\\\\myWebApps\\\\web2py\\\\applications\\\\CUP\\\\&#x27;])</div></td></tr><tr><td style="font-weight:bold;vertical-align:top;">applications_parent</td><td style="vertical-align:top;">:</td><td><div>C:\\Users\\Administrator.DATASCIENCEVM\\Dropbox\\______________myDevProjects\\myWebApps\\myWebApps\\web2py</div></td></tr><tr><td style="font-weight:bold;vertical-align:top;">cmd_args</td><td style="vertical-align:top;">:</td><td><div><table></table></div></td></tr><tr><td style="font-weight:bold;vertical-align:top;">cmd_options</td><td style="vertical-align:top;">:</td><td><div>&lt;Values at 0x3858408: {&#x27;verbose&#x27;: False, &#x27;ip&#x27;: &#x27;localhost&#x27;, &#x27;debuglevel&#x27;: 30, &#x27;with_scheduler&#x27;: False, &#x27;ips&#x27;: [&#x27;192.168.1.100&#x27;, &#x27;fe80::4c2:1e42:fd13:5738%15&#x27;, &#x27;fe80::244b:ba1:e8b9:363d%12&#x27;, &#x27;2001:0:5ef5:79fd:4c2:1e42:fd13:5738&#x27;], &#x27;shutdown_timeout&#x27;: 5, &#x27;taskbar&#x27;: False, &#x27;with_coverage&#x27;: False, &#x27;scheduler_groups&#x27;: None, &#x27;port&#x27;: 8080, &#x27;maxthreads&#x27;: None, &#x27;softcron&#x27;: False, &#x27;server_name&#x27;: &#x27;DataScienceVM&#x27;, &#x27;bpython&#x27;: False, &#x27;nogui&#x27;: False, &#x27;pid_filename&#x27;: &#x27;httpserver.pid&#x27;, &#x27;print_errors&#x27;: False, &#x27;extcron&#x27;: False, &#x27;runcron&#x27;: False, &#x27;run_system_tests&#x27;: False, &#x27;test&#x27;: None, &#x27;folder&#x27;: &#x27;C:\\\\Users\\\\Administrator.DATASCIENCEVM\\\\Dropbox\\\\______________myDevProjects\\\\myWebApps\\\\myWebApps\\\\web2py&#x27;, &#x27;config&#x27;: &#x27;&#x27;, &#x27;minthreads&#x27;: None, &#x27;shell&#x27;: None, &#x27;run&#x27;: &#x27;&#x27;, &#x27;log_filename&#x27;: &#x27;httpserver.log&#x27;, &#x27;profiler_dir&#x27;: None, &#x27;args&#x27;: [&#x27;&#x27;], &#x27;socket_timeout&#x27;: 5, &#x27;ssl_ca_certificate&#x27;: None, &#x27;scheduler&#x27;: None, &#x27;interfaces&#x27;: None, &#x27;ssl_private_key&#x27;: &#x27;&#x27;, &#x27;gae&#x27;: None, &#x27;password&#x27;: &#x27;1234&#x27;, &#x27;request_queue_size&#x27;: 5, &#x27;ssl_certificate&#x27;: &#x27;&#x27;, &#x27;cronjob&#x27;: False, &#x27;numthreads&#x27;: None, &#x27;quiet&#x27;: False, &#x27;import_models&#x27;: False, &#x27;timeout&#x27;: 10, &#x27;plain&#x27;: False, &#x27;nobanner&#x27;: False}&gt;</div></td></tr><tr><td style="font-weight:bold;vertical-align:top;">db_sessions</td><td style="vertical-align:top;">:</td><td><div>set([])</div></td></tr><tr><td style="font-weight:bold;vertical-align:top;">debugging</td><td style="vertical-align:top;">:</td><td><div>False</div></td></tr><tr><td style="font-weight:bold;vertical-align:top;">gluon_parent</td><td style="vertical-align:top;">:</td><td><div>C:\\Users\\Administrator.DATASCIENCEVM\\Dropbox\\______________myDevProjects\\myWebApps\\myWebApps\\web2py</div></td></tr><tr><td style="font-weight:bold;vertical-align:top;">http_accept</td><td style="vertical-align:top;">:</td><td><div>text/html, application/xhtml+xml, */*</div></td></tr><tr><td style="font-weight:bold;vertical-align:top;">http_accept_encoding</td><td style="vertical-align:top;">:</td><td><div>gzip, deflate, peerdist</div></td></tr><tr><td style="font-weight:bold;vertical-align:top;">http_accept_language</td><td style="vertical-align:top;">:</td><td><div>it-IT</div></td></tr><tr><td style="font-weight:bold;vertical-align:top;">http_connection</td><td style="vertical-align:top;">:</td><td><div>Keep-Alive</div></td></tr><tr><td style="font-weight:bold;vertical-align:top;">http_cookie</td><td style="vertical-align:top;">:</td><td><div>session_id_admin=127.0.0.1-bae02e0a-9175-4fab-aadf-362d6f8080db; session_id_cup=127.0.0.1-158ccc9b-15fb-4af3-83f7-b6645c7635fa</div></td></tr><tr><td style="font-weight:bold;vertical-align:top;">http_host</td><td style="vertical-align:top;">:</td><td><div>localhost:8080</div></td></tr><tr><td style="font-weight:bold;vertical-align:top;">http_referer</td><td style="vertical-align:top;">:</td><td><div>http://localhost:8080/admin/site</div></td></tr><tr><td style="font-weight:bold;vertical-align:top;">http_user_agent</td><td style="vertical-align:top;">:</td><td><div>Mozilla/5.0 (Windows NT 6.3; WOW64; Trident/7.0; Touch; rv:11.0) like Gecko</div></td></tr><tr><td style="font-weight:bold;vertical-align:top;">http_x_p2p_peerdist</td><td style="vertical-align:top;">:</td><td><div>Version=1.1</div></td></tr><tr><td style="font-weight:bold;vertical-align:top;">http_x_p2p_peerdistex</td><td style="vertical-align:top;">:</td><td><div>MinContentInformation=1.0, MaxContentInformation=2.0</div></td></tr><tr><td style="font-weight:bold;vertical-align:top;">is_jython</td><td style="vertical-align:top;">:</td><td><div>False</div></td></tr><tr><td style="font-weight:bold;vertical-align:top;">is_pypy</td><td style="vertical-align:top;">:</td><td><div>False</div></td></tr><tr><td style="font-weight:bold;vertical-align:top;">is_source</td><td style="vertical-align:top;">:</td><td><div>True</div></td></tr><tr><td style="font-weight:bold;vertical-align:top;">local_hosts</td><td style="vertical-align:top;">:</td><td><div><table><tr><td><div>DataScienceVM.SOS-NHS.local</div></td></tr><tr><td><div>192.168.1.100</div></td></tr><tr><td><div>::ffff:127.0.0.1</div></td></tr><tr><td><div>::1</div></td></tr><tr><td><div>2001:0:5ef5:79fd:4c2:1e42:fd13:5738</div></td></tr><tr><td><div>fe80::4c2:1e42:fd13:5738%15</div></td></tr><tr><td><div>fe80::244b:ba1:e8b9:363d%12</div></td></tr><tr><td><div>DataScienceVM</div></td></tr><tr><td><div>127.0.0.1</div></td></tr></table></div></td></tr><tr><td style="font-weight:bold;vertical-align:top;">path_info</td><td style="vertical-align:top;">:</td><td><div>/CUP</div></td></tr><tr><td style="font-weight:bold;vertical-align:top;">query_string</td><td style="vertical-align:top;">:</td><td><div></div></td></tr><tr><td style="font-weight:bold;vertical-align:top;">remote_addr</td><td style="vertical-align:top;">:</td><td><div>127.0.0.1</div></td></tr><tr><td style="font-weight:bold;vertical-align:top;">remote_port</td><td style="vertical-align:top;">:</td><td><div>50918</div></td></tr><tr><td style="font-weight:bold;vertical-align:top;">request_method</td><td style="vertical-align:top;">:</td><td><div>GET</div></td></tr><tr><td style="font-weight:bold;vertical-align:top;">request_uri</td><td style="vertical-align:top;">:</td><td><div>/CUP/default/index</div></td></tr><tr><td style="font-weight:bold;vertical-align:top;">script_name</td><td style="vertical-align:top;">:</td><td><div></div></td></tr><tr><td style="font-weight:bold;vertical-align:top;">server_name</td><td style="vertical-align:top;">:</td><td><div>DataScienceVM</div></td></tr><tr><td style="font-weight:bold;vertical-align:top;">server_port</td><td style="vertical-align:top;">:</td><td><div>8080</div></td></tr><tr><td style="font-weight:bold;vertical-align:top;">server_protocol</td><td style="vertical-align:top;">:</td><td><div>HTTP/1.1</div></td></tr><tr><td style="font-weight:bold;vertical-align:top;">server_software</td><td style="vertical-align:top;">:</td><td><div>Rocket 1.2.6</div></td></tr><tr><td style="font-weight:bold;vertical-align:top;">web2py_original_uri</td><td style="vertical-align:top;">:</td><td><div>/CUP</div></td></tr><tr><td style="font-weight:bold;vertical-align:top;">web2py_path</td><td style="vertical-align:top;">:</td><td><div>C:\\Users\\Administrator.DATASCIENCEVM\\Dropbox\\______________myDevProjects\\myWebApps\\myWebApps\\web2py</div></td></tr><tr><td style="font-weight:bold;vertical-align:top;">web2py_version</td><td style="vertical-align:top;">:</td><td><div>2.13.4-stable+timestamp.2015.12.26.04.59.39</div></td></tr><tr><td style="font-weight:bold;vertical-align:top;">wsgi.errors</td><td style="vertical-align:top;">:</td><td><div>&lt;visualstudio_py_debugger._DebuggerOutput object at 0x000000000278ABA8&gt;</div></td></tr><tr><td style="font-weight:bold;vertical-align:top;">wsgi.file_wrapper</td><td style="vertical-align:top;">:</td><td><div>&lt;class wsgiref.util.FileWrapper at 0x00000000037F6A08&gt;</div></td></tr><tr><td style="font-weight:bold;vertical-align:top;">wsgi.input</td><td style="vertical-align:top;">:</td><td><div>&lt;socket._fileobject object at 0x0000000004341570&gt;</div></td></tr><tr><td style="font-weight:bold;vertical-align:top;">wsgi.multiprocess</td><td style="vertical-align:top;">:</td><td><div>False</div></td></tr><tr><td style="font-weight:bold;vertical-align:top;">wsgi.multithread</td><td style="vertical-align:top;">:</td><td><div>True</div></td></tr><tr><td style="font-weight:bold;vertical-align:top;">wsgi.run_once</td><td style="vertical-align:top;">:</td><td><div>False</div></td></tr><tr><td style="font-weight:bold;vertical-align:top;">wsgi.url_scheme</td><td style="vertical-align:top;">:</td><td><div>http</div></td></tr><tr><td style="font-weight:bold;vertical-align:top;">wsgi.version</td><td style="vertical-align:top;">:</td><td><div><table><tr><td><div>1</div></td></tr><tr><td><div>0</div></td></tr></table></div></td></tr><tr><td style="font-weight:bold;vertical-align:top;">wsgi_errors</td><td style="vertical-align:top;">:</td><td><div>&lt;visualstudio_py_debugger._DebuggerOutput object at 0x000000000278ABA8&gt;</div></td></tr><tr><td style="font-weight:bold;vertical-align:top;">wsgi_file_wrapper</td><td style="vertical-align:top;">:</td><td><div>&lt;class wsgiref.util.FileWrapper at 0x00000000037F6A08&gt;</div></td></tr><tr><td style="font-weight:bold;vertical-align:top;">wsgi_input</td><td style="vertical-align:top;">:</td><td><div>&lt;socket._fileobject object at 0x0000000004341570&gt;</div></td></tr><tr><td style="font-weight:bold;vertical-align:top;">wsgi_multiprocess</td><td style="vertical-align:top;">:</td><td><div>False</div></td></tr><tr><td style="font-weight:bold;vertical-align:top;">wsgi_multithread</td><td style="vertical-align:top;">:</td><td><div>True</div></td></tr><tr><td style="font-weight:bold;vertical-align:top;">wsgi_run_once</td><td style="vertical-align:top;">:</td><td><div>False</div></td></tr><tr><td style="font-weight:bold;vertical-align:top;">wsgi_url_scheme</td><td style="vertical-align:top;">:</td><td><div>http</div></td></tr><tr><td style="font-weight:bold;vertical-align:top;">wsgi_version</td><td style="vertical-align:top;">:</td><td><div><table><tr><td><div>1</div></td></tr><tr><td><div>0</div></td></tr></table></div></td></tr></table></div></td></tr><tr><td style="font-weight:bold;vertical-align:top;">extension</td><td style="vertical-align:top;">:</td><td><div>html</div></td></tr><tr><td style="font-weight:bold;vertical-align:top;">folder</td><td style="vertical-align:top;">:</td><td><div>C:\\Users\\Administrator.DATASCIENCEVM\\Dropbox\\______________myDevProjects\\myWebApps\\myWebApps\\web2py\\applications\\CUP\\</div></td></tr><tr><td style="font-weight:bold;vertical-align:top;">function</td><td style="vertical-align:top;">:</td><td><div>index</div></td></tr><tr><td style="font-weight:bold;vertical-align:top;">global_settings</td><td style="vertical-align:top;">:</td><td><div><table><tr><td style="font-weight:bold;vertical-align:top;">app_folders</td><td style="vertical-align:top;">:</td><td><div>set([&#x27;C:\\\\Users\\\\Administrator.DATASCIENCEVM\\\\Dropbox\\\\______________myDevProjects\\\\myWebApps\\\\myWebApps\\\\web2py\\\\applications\\\\admin\\\\&#x27;, &#x27;C:\\\\Users\\\\Administrator.DATASCIENCEVM\\\\Dropbox\\\\______________myDevProjects\\\\myWebApps\\\\myWebApps\\\\web2py\\\\applications\\\\CUP\\\\&#x27;])</div></td></tr><tr><td style="font-weight:bold;vertical-align:top;">applications_parent</td><td style="vertical-align:top;">:</td><td><div>C:\\Users\\Administrator.DATASCIENCEVM\\Dropbox\\______________myDevProjects\\myWebApps\\myWebApps\\web2py</div></td></tr><tr><td style="font-weight:bold;vertical-align:top;">cmd_args</td><td style="vertical-align:top;">:</td><td><div><table></table></div></td></tr><tr><td style="font-weight:bold;vertical-align:top;">cmd_options</td><td style="vertical-align:top;">:</td><td><div>&lt;Values at 0x3858408: {&#x27;verbose&#x27;: False, &#x27;ip&#x27;: &#x27;localhost&#x27;, &#x27;debuglevel&#x27;: 30, &#x27;with_scheduler&#x27;: False, &#x27;ips&#x27;: [&#x27;192.168.1.100&#x27;, &#x27;fe80::4c2:1e42:fd13:5738%15&#x27;, &#x27;fe80::244b:ba1:e8b9:363d%12&#x27;, &#x27;2001:0:5ef5:79fd:4c2:1e42:fd13:5738&#x27;], &#x27;shutdown_timeout&#x27;: 5, &#x27;taskbar&#x27;: False, &#x27;with_coverage&#x27;: False, &#x27;scheduler_groups&#x27;: None, &#x27;port&#x27;: 8080, &#x27;maxthreads&#x27;: None, &#x27;softcron&#x27;: False, &#x27;server_name&#x27;: &#x27;DataScienceVM&#x27;, &#x27;bpython&#x27;: False, &#x27;nogui&#x27;: False, &#x27;pid_filename&#x27;: &#x27;httpserver.pid&#x27;, &#x27;print_errors&#x27;: False, &#x27;extcron&#x27;: False, &#x27;runcron&#x27;: False, &#x27;run_system_tests&#x27;: False, &#x27;test&#x27;: None, &#x27;folder&#x27;: &#x27;C:\\\\Users\\\\Administrator.DATASCIENCEVM\\\\Dropbox\\\\______________myDevProjects\\\\myWebApps\\\\myWebApps\\\\web2py&#x27;, &#x27;config&#x27;: &#x27;&#x27;, &#x27;minthreads&#x27;: None, &#x27;shell&#x27;: None, &#x27;run&#x27;: &#x27;&#x27;, &#x27;log_filename&#x27;: &#x27;httpserver.log&#x27;, &#x27;profiler_dir&#x27;: None, &#x27;args&#x27;: [&#x27;&#x27;], &#x27;socket_timeout&#x27;: 5, &#x27;ssl_ca_certificate&#x27;: None, &#x27;scheduler&#x27;: None, &#x27;interfaces&#x27;: None, &#x27;ssl_private_key&#x27;: &#x27;&#x27;, &#x27;gae&#x27;: None, &#x27;password&#x27;: &#x27;1234&#x27;, &#x27;request_queue_size&#x27;: 5, &#x27;ssl_certificate&#x27;: &#x27;&#x27;, &#x27;cronjob&#x27;: False, &#x27;numthreads&#x27;: None, &#x27;quiet&#x27;: False, &#x27;import_models&#x27;: False, &#x27;timeout&#x27;: 10, &#x27;plain&#x27;: False, &#x27;nobanner&#x27;: False}&gt;</div></td></tr><tr><td style="font-weight:bold;vertical-align:top;">db_sessions</td><td style="vertical-align:top;">:</td><td><div>set([])</div></td></tr><tr><td style="font-weight:bold;vertical-align:top;">debugging</td><td style="vertical-align:top;">:</td><td><div>False</div></td></tr><tr><td style="font-weight:bold;vertical-align:top;">gluon_parent</td><td style="vertical-align:top;">:</td><td><div>C:\\Users\\Administrator.DATASCIENCEVM\\Dropbox\\______________myDevProjects\\myWebApps\\myWebApps\\web2py</div></td></tr><tr><td style="font-weight:bold;vertical-align:top;">is_jython</td><td style="vertical-align:top;">:</td><td><div>False</div></td></tr><tr><td style="font-weight:bold;vertical-align:top;">is_pypy</td><td style="vertical-align:top;">:</td><td><div>False</div></td></tr><tr><td style="font-weight:bold;vertical-align:top;">is_source</td><td style="vertical-align:top;">:</td><td><div>True</div></td></tr><tr><td style="font-weight:bold;vertical-align:top;">local_hosts</td><td style="vertical-align:top;">:</td><td><div><table><tr><td><div>DataScienceVM.SOS-NHS.local</div></td></tr><tr><td><div>192.168.1.100</div></td></tr><tr><td><div>::ffff:127.0.0.1</div></td></tr><tr><td><div>::1</div></td></tr><tr><td><div>2001:0:5ef5:79fd:4c2:1e42:fd13:5738</div></td></tr><tr><td><div>fe80::4c2:1e42:fd13:5738%15</div></td></tr><tr><td><div>fe80::244b:ba1:e8b9:363d%12</div></td></tr><tr><td><div>DataScienceVM</div></td></tr><tr><td><div>127.0.0.1</div></td></tr></table></div></td></tr><tr><td style="font-weight:bold;vertical-align:top;">web2py_version</td><td style="vertical-align:top;">:</td><td><div>2.13.4-stable+timestamp.2015.12.26.04.59.39</div></td></tr></table></div></td></tr><tr><td style="font-weight:bold;vertical-align:top;">is_https</td><td style="vertical-align:top;">:</td><td><div>False</div></td></tr><tr><td style="font-weight:bold;vertical-align:top;">is_local</td><td style="vertical-align:top;">:</td><td><div>True</div></td></tr><tr><td style="font-weight:bold;vertical-align:top;">is_restful</td><td style="vertical-align:top;">:</td><td><div>False</div></td></tr><tr><td style="font-weight:bold;vertical-align:top;">is_scheduler</td><td style="vertical-align:top;">:</td><td><div>False</div></td></tr><tr><td style="font-weight:bold;vertical-align:top;">is_shell</td><td style="vertical-align:top;">:</td><td><div>False</div></td></tr><tr><td style="font-weight:bold;vertical-align:top;">now</td><td style="vertical-align:top;">:</td><td><div>datetime.datetime(2016, 3, 20, 17, 46, 20, 763000)</div></td></tr><tr><td style="font-weight:bold;vertical-align:top;">url</td><td style="vertical-align:top;">:</td><td><div>/CUP</div></td></tr><tr><td style="font-weight:bold;vertical-align:top;">utcnow</td><td style="vertical-align:top;">:</td><td><div>datetime.datetime(2016, 3, 20, 16, 46, 20, 763000)</div></td></tr><tr><td style="font-weight:bold;vertical-align:top;">wsgi</td><td style="vertical-align:top;">:</td><td><div>&lt;gluon.main.LazyWSGI object at 0x00000000079E68D0&gt;</div></td></tr></table></div>'
tRp63
sS'frames'
p64
(lp65
(dp66
S'file'
p67
S'C:\\Users\\Administrator.DATASCIENCEVM\\Dropbox\\______________myDevProjects\\myWebApps\\myWebApps\\web2py\\gluon\\restricted.py'
p68
sS'dump'
p69
(dp70
S'environment'
p71
S"{'A': <class 'gluon.html.A'>, 'ANY_OF': <class 'gluon.validators.ANY_OF'>, 'ASSIGNJS': <function ASSIGNJS>, 'AppConfig': <function AppConfig>, 'Auth': <class 'gluon.tools.Auth'>, 'B': <class 'gluon.html.B'>, 'BEAUTIFY': <class 'gluon.html.BEAUTIFY'>, 'BODY': <class 'gluon.html.BODY'>, 'BR': <class 'gluon.html.BR'>, 'BUTTON': <class 'gluon.html.BUTTON'>, ...}"
p72
sS'ccode'
p73
S'<code object <module> at 00000000043EB230, file ...s\\web2py\\applications\\CUP\\models\\db.py", line 13>'
p74
ssS'lnum'
p75
I227
sS'lines'
p76
(dp77
I224
S'            ccode = code'
p78
sI225
S'        else:'
p79
sI226
S'            ccode = compile2(code, layer)'
p80
sI227
S'        exec ccode in environment'
p81
sI228
S'    except HTTP:'
p82
sI229
S'        raise'
p83
sI230
S'    except RestrictedError:'
p84
sI231
S'        # do not encapsulate (obfuscate) the original RestrictedError'
p85
sI222
S'    try:'
p86
sI223
S'        if isinstance(code, types.CodeType):'
p87
ssS'call'
p88
S"(code='# -*- coding: utf-8 -*-\\n\\n#######################...able auditing\\n# auth.enable_record_versioning(db)', environment={'A': <class 'gluon.html.A'>, 'ANY_OF': <class 'gluon.validators.ANY_OF'>, 'ASSIGNJS': <function ASSIGNJS>, 'AppConfig': <function AppConfig>, 'Auth': <class 'gluon.tools.Auth'>, 'B': <class 'gluon.html.B'>, 'BEAUTIFY': <class 'gluon.html.BEAUTIFY'>, 'BODY': <class 'gluon.html.BODY'>, 'BR': <class 'gluon.html.BR'>, 'BUTTON': <class 'gluon.html.BUTTON'>, ...}, layer=r'C:\\Users\\Administrator.DATASCIENCEVM\\Dropbox\\___...ps\\myWebApps\\web2py\\applications\\CUP\\models\\db.py')"
p89
sS'func'
p90
S'restricted'
p91
sa(dp92
g67
S'C:\\Users\\Administrator.DATASCIENCEVM\\Dropbox\\______________myDevProjects\\myWebApps\\myWebApps\\web2py\\applications\\CUP\\models\\db.py'
p93
sg69
(dp94
S'builtinopen'
p95
S'<built-in function open>'
p96
sS'db.Comune'
p97
S'<Table Comune (id,is_active,created_on,created_by,modified_on,modified_by)>'
p98
sS'db'
p99
S'<DAL uri="sqlite://storage.sqlite">'
p100
sS'db.Comune.import_from_csv_file'
p101
S'<bound method Table.import_from_csv_file of <Tab...,created_on,created_by,modified_on,modified_by)>>'
p102
ssg75
I120
sg76
(dp103
I115
S'    Field("codice", "string", notnull=True, default=valoreNonDefinito, length=3),'
p104
sI116
S'    Field("nome", "string", default=valoreNonDefinito))'
p105
sI117
S''
sI118
S'db.define_table("Comune")'
p106
sI119
S'if db(db.Comune.id>0).isempty():'
p107
sI120
S"    db.Comune.import_from_csv_file(open('Comune.csv','r'))"
p108
sI121
S''
sI122
S'Agente = db.Table(db,"Agente",'
p109
sI123
S'    Field("id_auth_user", "reference auth_user"),'
p110
sI124
S'    Field("codice", "string", default=valoreNonDefinito),'
p111
ssg88
S'()'
p112
sg90
S'<module>'
p113
sasS'pyver'
p114
S'Python 2.7.11: C:\\Python27\\python.exe (prefix: C:\\Python27)'
p115
sS'session'
p116
g62
(S's\x0c\n\x00\x00<div><table><tr><td style="font-weight:bold;vertical-align:top;">auth</td><td style="vertical-align:top;">:</td><td><div><table><tr><td style="font-weight:bold;vertical-align:top;">expiration</td><td style="vertical-align:top;">:</td><td><div>2592000</div></td></tr><tr><td style="font-weight:bold;vertical-align:top;">hmac_key</td><td style="vertical-align:top;">:</td><td><div>5c1bde78-0b72-4986-a338-7f4b19e572b9</div></td></tr><tr><td style="font-weight:bold;vertical-align:top;">last_visit</td><td style="vertical-align:top;">:</td><td><div>datetime.datetime(2016, 3, 20, 15, 53, 34, 364000)</div></td></tr><tr><td style="font-weight:bold;vertical-align:top;">remember_me</td><td style="vertical-align:top;">:</td><td><div>True</div></td></tr><tr><td style="font-weight:bold;vertical-align:top;">user</td><td style="vertical-align:top;">:</td><td><div><table><tr><td style="font-weight:bold;vertical-align:top;">email</td><td style="vertical-align:top;">:</td><td><div>luca.paulon@gmail.com</div></td></tr><tr><td style="font-weight:bold;vertical-align:top;">first_name</td><td style="vertical-align:top;">:</td><td><div>Luca</div></td></tr><tr><td style="font-weight:bold;vertical-align:top;">id</td><td style="vertical-align:top;">:</td><td><div>1L</div></td></tr><tr><td style="font-weight:bold;vertical-align:top;">last_name</td><td style="vertical-align:top;">:</td><td><div>Paulon</div></td></tr><tr><td style="font-weight:bold;vertical-align:top;">registration_id</td><td style="vertical-align:top;">:</td><td><div></div></td></tr><tr><td style="font-weight:bold;vertical-align:top;">registration_key</td><td style="vertical-align:top;">:</td><td><div></div></td></tr><tr><td style="font-weight:bold;vertical-align:top;">reset_password_key</td><td style="vertical-align:top;">:</td><td><div></div></td></tr></table></div></td></tr><tr><td style="font-weight:bold;vertical-align:top;">user_groups</td><td style="vertical-align:top;">:</td><td><div><table><tr><td style="font-weight:bold;vertical-align:top;">1</td><td style="vertical-align:top;">:</td><td><div>user_1</div></td></tr></table></div></td></tr></table></div></td></tr><tr><td style="font-weight:bold;vertical-align:top;">flash</td><td style="vertical-align:top;">:</td><td><div>None</div></td></tr><tr><td style="font-weight:bold;vertical-align:top;">last_orderby</td><td style="vertical-align:top;">:</td><td><div>None</div></td></tr><tr><td style="font-weight:bold;vertical-align:top;">last_query</td><td style="vertical-align:top;">:</td><td><div>db.Cliente.id&gt;0</div></td></tr></table></div>'
tRp117
sS'etype'
p118
S"<type 'exceptions.IOError'>"
p119
sS'date'
p120
S'Sun Mar 20 17:46:20 2016'
p121
sS'response'
p122
g62
(S's\x93\x18\x00\x00<div><table><tr><td style="font-weight:bold;vertical-align:top;">body</td><td style="vertical-align:top;">:</td><td><div>&lt;cStringIO.StringO object at 0x0000000006ACF848&gt;</div></td></tr><tr><td style="font-weight:bold;vertical-align:top;">cookies</td><td style="vertical-align:top;">:</td><td><div><table><tr><td style="font-weight:bold;vertical-align:top;">session_id_cup</td><td style="vertical-align:top;">:</td><td><div>127.0.0.1-158ccc9b-15fb-4af3-83f7-b6645c7635fa<table><tr><td style="font-weight:bold;vertical-align:top;">comment</td><td style="vertical-align:top;">:</td><td><div></div></td></tr><tr><td style="font-weight:bold;vertical-align:top;">domain</td><td style="vertical-align:top;">:</td><td><div></div></td></tr><tr><td style="font-weight:bold;vertical-align:top;">expires</td><td style="vertical-align:top;">:</td><td><div></div></td></tr><tr><td style="font-weight:bold;vertical-align:top;">httponly</td><td style="vertical-align:top;">:</td><td><div></div></td></tr><tr><td style="font-weight:bold;vertical-align:top;">max-age</td><td style="vertical-align:top;">:</td><td><div></div></td></tr><tr><td style="font-weight:bold;vertical-align:top;">path</td><td style="vertical-align:top;">:</td><td><div>/</div></td></tr><tr><td style="font-weight:bold;vertical-align:top;">secure</td><td style="vertical-align:top;">:</td><td><div></div></td></tr><tr><td style="font-weight:bold;vertical-align:top;">version</td><td style="vertical-align:top;">:</td><td><div></div></td></tr></table></div></td></tr></table></div></td></tr><tr><td style="font-weight:bold;vertical-align:top;">delimiters</td><td style="vertical-align:top;">:</td><td><div><table><tr><td><div>{{</div></td></tr><tr><td><div>}}</div></td></tr></table></div></td></tr><tr><td style="font-weight:bold;vertical-align:top;">files</td><td style="vertical-align:top;">:</td><td><div><table></table></div></td></tr><tr><td style="font-weight:bold;vertical-align:top;">flash</td><td style="vertical-align:top;">:</td><td><div></div></td></tr><tr><td style="font-weight:bold;vertical-align:top;">form_label_separator</td><td style="vertical-align:top;">:</td><td><div></div></td></tr><tr><td style="font-weight:bold;vertical-align:top;">formstyle</td><td style="vertical-align:top;">:</td><td><div>bootstrap3_inline</div></td></tr><tr><td style="font-weight:bold;vertical-align:top;">generic_patterns</td><td style="vertical-align:top;">:</td><td><div><table><tr><td><div>*</div></td></tr></table></div></td></tr><tr><td style="font-weight:bold;vertical-align:top;">headers</td><td style="vertical-align:top;">:</td><td><div><table><tr><td style="font-weight:bold;vertical-align:top;">X-Powered-By</td><td style="vertical-align:top;">:</td><td><div>web2py</div></td></tr></table></div></td></tr><tr><td style="font-weight:bold;vertical-align:top;">menu</td><td style="vertical-align:top;">:</td><td><div><table></table></div></td></tr><tr><td style="font-weight:bold;vertical-align:top;">meta</td><td style="vertical-align:top;">:</td><td><div><table></table></div></td></tr><tr><td style="font-weight:bold;vertical-align:top;">models_to_run</td><td style="vertical-align:top;">:</td><td><div><table><tr><td><div>^\\w+\\.py$</div></td></tr><tr><td><div>^default/\\w+\\.py$</div></td></tr><tr><td><div>^default/index/\\w+\\.py$</div></td></tr></table></div></td></tr><tr><td style="font-weight:bold;vertical-align:top;">postprocessing</td><td style="vertical-align:top;">:</td><td><div><table></table></div></td></tr><tr><td style="font-weight:bold;vertical-align:top;">session_client</td><td style="vertical-align:top;">:</td><td><div>127.0.0.1</div></td></tr><tr><td style="font-weight:bold;vertical-align:top;">session_cookie_compression_level</td><td style="vertical-align:top;">:</td><td><div>None</div></td></tr><tr><td style="font-weight:bold;vertical-align:top;">session_cookie_expires</td><td style="vertical-align:top;">:</td><td><div>2592000</div></td></tr><tr><td style="font-weight:bold;vertical-align:top;">session_cookie_key</td><td style="vertical-align:top;">:</td><td><div>None</div></td></tr><tr><td style="font-weight:bold;vertical-align:top;">session_data_name</td><td style="vertical-align:top;">:</td><td><div>session_data_cup</div></td></tr><tr><td style="font-weight:bold;vertical-align:top;">session_file</td><td style="vertical-align:top;">:</td><td><div>&lt;open file &#x27;C:\\\\Users\\\\Administrator.DATASCIENCEVM\\\\Dropbox\\\\______________myDevProjects\\\\myWebApps\\\\myWebApps\\\\web2py\\\\applications\\\\CUP\\\\sessions\\\\025\\\\1a3\\\\127.0.0.1-158ccc9b-15fb-4af3-83f7-b6645c7635fa&#x27;, mode &#x27;rb+&#x27; at 0x00000000042A0B70&gt;</div></td></tr><tr><td style="font-weight:bold;vertical-align:top;">session_filename</td><td style="vertical-align:top;">:</td><td><div>C:\\Users\\Administrator.DATASCIENCEVM\\Dropbox\\______________myDevProjects\\myWebApps\\myWebApps\\web2py\\applications\\CUP\\sessions\\127.0.0.1-158ccc9b-15fb-4af3-83f7-b6645c7635fa</div></td></tr><tr><td style="font-weight:bold;vertical-align:top;">session_hash</td><td style="vertical-align:top;">:</td><td><div>b926158a99b7c70a7a36b51da017a8a2</div></td></tr><tr><td style="font-weight:bold;vertical-align:top;">session_id</td><td style="vertical-align:top;">:</td><td><div>127.0.0.1-158ccc9b-15fb-4af3-83f7-b6645c7635fa</div></td></tr><tr><td style="font-weight:bold;vertical-align:top;">session_id_name</td><td style="vertical-align:top;">:</td><td><div>session_id_cup</div></td></tr><tr><td style="font-weight:bold;vertical-align:top;">session_locked</td><td style="vertical-align:top;">:</td><td><div>True</div></td></tr><tr><td style="font-weight:bold;vertical-align:top;">session_masterapp</td><td style="vertical-align:top;">:</td><td><div>CUP</div></td></tr><tr><td style="font-weight:bold;vertical-align:top;">session_new</td><td style="vertical-align:top;">:</td><td><div>False</div></td></tr><tr><td style="font-weight:bold;vertical-align:top;">session_storage_type</td><td style="vertical-align:top;">:</td><td><div>file</div></td></tr><tr><td style="font-weight:bold;vertical-align:top;">status</td><td style="vertical-align:top;">:</td><td><div>200</div></td></tr><tr><td style="font-weight:bold;vertical-align:top;">view</td><td style="vertical-align:top;">:</td><td><div>default/index.html</div></td></tr></table></div>'
tRp123
sS'locals'
p124
(dp125
S'Service'
p126
S"<class 'gluon.tools.Service'>"
p127
sS'OBJECT'
p128
S"<class 'gluon.html.OBJECT'>"
p129
sS'SQLDB'
p130
S"<class 'pydal.base.DAL'>"
p131
sg116
S"<Storage {'last_query': 'db.Cliente.id>0', '_for...gin]': ['a197548e-288d-4cd6-868e-8175be74c5c0']}>"
p132
sS'LINK'
p133
S"<class 'gluon.html.LINK'>"
p134
sS'BR'
p135
S"<class 'gluon.html.BR'>"
p136
sS'local_import'
p137
S'<function <lambda>>'
p138
sS'OPTGROUP'
p139
S"<class 'gluon.html.OPTGROUP'>"
p140
sS'LI'
p141
S"<class 'gluon.html.LI'>"
p142
sS'PRE'
p143
S"<class 'gluon.html.PRE'>"
p144
sS'IS_INT_IN_RANGE'
p145
S"<class 'gluon.validators.IS_INT_IN_RANGE'>"
p146
sS'IS_LOWER'
p147
S"<class 'gluon.validators.IS_LOWER'>"
p148
sS'IS_STRONG'
p149
S"<class 'gluon.validators.IS_STRONG'>"
p150
sS'cache'
p151
S'<gluon.cache.Cache object>'
p152
sS'IS_IN_DB'
p153
S"<class 'gluon.validators.IS_IN_DB'>"
p154
sS'TAG'
p155
S'<gluon.html.__TAG__ object>'
p156
sS'SQLField'
p157
S"<class 'pydal.objects.Field'>"
p158
sS'mail'
p159
S'<gluon.tools.Mail object>'
p160
sS'BODY'
p161
S"<class 'gluon.html.BODY'>"
p162
sS'IS_DATE_IN_RANGE'
p163
S"<class 'gluon.validators.IS_DATE_IN_RANGE'>"
p164
sS'TH'
p165
S"<class 'gluon.html.TH'>"
p166
sS'URL'
p167
S'<function URL>'
p168
sS'__file__'
p169
S"r'C:\\Users\\Administrator.DATASCIENCEVM\\Dropbox\\___...ps\\myWebApps\\web2py\\applications\\CUP\\models\\db.py'"
p170
sS'db'
p171
S'<DAL uri="sqlite://storage.sqlite">'
p172
sS'auth'
p173
S'<gluon.tools.Auth object>'
p174
sS'P'
S"<class 'gluon.html.P'>"
p175
sS'TFOOT'
p176
S"<class 'gluon.html.TFOOT'>"
p177
sS'XHTML'
p178
S"<class 'gluon.html.XHTML'>"
p179
sS'ON'
p180
S'True'
p181
sS'OL'
p182
S"<class 'gluon.html.OL'>"
p183
sS'TEXTAREA'
p184
S"<class 'gluon.html.TEXTAREA'>"
p185
sS'MENU'
p186
S"<class 'gluon.html.MENU'>"
p187
sS'LOAD'
p188
S'<function LOAD>'
p189
sS'CODE'
p190
S"<class 'gluon.html.CODE'>"
p191
sS'HTTP'
p192
S"<class 'gluon.http.HTTP'>"
p193
sS'HR'
p194
S"<class 'gluon.html.HR'>"
p195
sS'IS_DATETIME'
p196
S"<class 'gluon.validators.IS_DATETIME'>"
p197
sS'HEAD'
p198
S"<class 'gluon.html.HEAD'>"
p199
sS'LABEL'
p200
S"<class 'gluon.html.LABEL'>"
p201
sS'META'
p202
S"<class 'gluon.html.META'>"
p203
sS'plugins'
p204
S'<gluon.tools.PluginManager object>'
p205
sS'SELECT'
p206
S"<class 'gluon.html.SELECT'>"
p207
sS'CENTER'
p208
S"<class 'gluon.html.CENTER'>"
p209
sS'Auth'
p210
S"<class 'gluon.tools.Auth'>"
p211
sS'__builtins__'
p212
S"{'ArithmeticError': <type 'exceptions.ArithmeticError'>, 'AssertionError': <type 'exceptions.AssertionError'>, 'AttributeError': <type 'exceptions.AttributeError'>, 'BaseException': <type 'exceptions.BaseException'>, 'BufferError': <type 'exceptions.BufferError'>, 'BytesWarning': <type 'exceptions.BytesWarning'>, 'DeprecationWarning': <type 'exceptions.DeprecationWarning'>, 'EOFError': <type 'exceptions.EOFError'>, 'Ellipsis': Ellipsis, 'EnvironmentError': <type 'exceptions.EnvironmentError'>, ...}"
p213
sS'HTML'
p214
S"<class 'gluon.html.HTML'>"
p215
sS'SQLFORM'
p216
S"<class 'gluon.sqlhtml.SQLFORM'>"
p217
sS'EM'
p218
S"<class 'gluon.html.EM'>"
p219
sS'redirect'
p220
S'<function redirect>'
p221
sS'FIELDSET'
p222
S"<class 'gluon.html.FIELDSET'>"
p223
sS'IS_EQUAL_TO'
p224
S"<class 'gluon.validators.IS_EQUAL_TO'>"
p225
sS'embed64'
p226
S'<function embed64>'
p227
sS'IS_LIST_OF'
p228
S"<class 'gluon.validators.IS_LIST_OF'>"
p229
sS'__name__'
p230
S"'__restricted__'"
p231
sS'EMBED'
p232
S"<class 'gluon.html.EMBED'>"
p233
sS'FORM'
p234
S"<class 'gluon.html.FORM'>"
p235
sS'CLEANUP'
p236
S"<class 'gluon.validators.CLEANUP'>"
p237
sS'myconf'
p238
S"{'forms': {'formstyle': 'bootstrap3_inline', 'se...'you@gmail.com', 'server': 'smtp.gmail.com:587'}}"
p239
sS'H2'
p240
S"<class 'gluon.html.H2'>"
p241
sS'H3'
p242
S"<class 'gluon.html.H3'>"
p243
sS'AppConfig'
p244
S'<function AppConfig>'
p245
sS'H1'
p246
S"<class 'gluon.html.H1'>"
p247
sS'H6'
p248
S"<class 'gluon.html.H6'>"
p249
sS'H4'
p250
S"<class 'gluon.html.H4'>"
p251
sS'H5'
p252
S"<class 'gluon.html.H5'>"
p253
sS'UL'
p254
S"<class 'gluon.html.UL'>"
p255
sS'IS_UPPER'
p256
S"<class 'gluon.validators.IS_UPPER'>"
p257
sS'xmlescape'
p258
S'<function xmlescape>'
p259
sS'IS_TIME'
p260
S"<class 'gluon.validators.IS_TIME'>"
p261
sS'OPTION'
p262
S"<class 'gluon.html.OPTION'>"
p263
sS'TITLE'
p264
S"<class 'gluon.html.TITLE'>"
p265
sS'CRYPT'
p266
S"<class 'gluon.validators.CRYPT'>"
p267
sS'IS_EMPTY_OR'
p268
S"<class 'gluon.validators.IS_EMPTY_OR'>"
p269
sS'MARKMIN'
p270
S"<class 'gluon.html.MARKMIN'>"
p271
sS'mostraCodiceNome'
p272
S"' %(codice)s %(nome)s'"
p273
sS'INPUT'
p274
S"<class 'gluon.html.INPUT'>"
p275
sS'STRONG'
p276
S"<class 'gluon.html.STRONG'>"
p277
sS'COL'
p278
S"<class 'gluon.html.COL'>"
p279
sS'service'
p280
S'<gluon.tools.Service object>'
p281
sS'SCRIPT'
p282
S"<class 'gluon.html.SCRIPT'>"
p283
sS'TABLE'
p284
S"<class 'gluon.html.TABLE'>"
p285
sS'IS_IPV4'
p286
S"<class 'gluon.validators.IS_IPV4'>"
p287
sS'IS_LENGTH'
p288
S"<class 'gluon.validators.IS_LENGTH'>"
p289
sS'IS_IPV6'
p290
S"<class 'gluon.validators.IS_IPV6'>"
p291
sS'XML'
p292
S"<class 'gluon.html.XML'>"
p293
sS'B'
S"<class 'gluon.html.B'>"
p294
sS'IMG'
p295
S"<class 'gluon.html.IMG'>"
p296
sS'SQLTABLE'
p297
S"<class 'gluon.sqlhtml.SQLTABLE'>"
p298
sS'IS_MATCH'
p299
S"<class 'gluon.validators.IS_MATCH'>"
p300
sS'IS_ALPHANUMERIC'
p301
S"<class 'gluon.validators.IS_ALPHANUMERIC'>"
p302
sS'SPAN'
p303
S"<class 'gluon.html.SPAN'>"
p304
sS'IS_JSON'
p305
S"<class 'gluon.validators.IS_JSON'>"
p306
sS'IS_IPADDRESS'
p307
S"<class 'gluon.validators.IS_IPADDRESS'>"
p308
sS'IS_SLUG'
p309
S"<class 'gluon.validators.IS_SLUG'>"
p310
sS'BEAUTIFY'
p311
S"<class 'gluon.html.BEAUTIFY'>"
p312
sS'BUTTON'
p313
S"<class 'gluon.html.BUTTON'>"
p314
sS'IS_DATE'
p315
S"<class 'gluon.validators.IS_DATE'>"
p316
sS'IS_EMAIL'
p317
S"<class 'gluon.validators.IS_EMAIL'>"
p318
sS'IS_NOT_EMPTY'
p319
S"<class 'gluon.validators.IS_NOT_EMPTY'>"
p320
sS'IS_FLOAT_IN_RANGE'
p321
S"<class 'gluon.validators.IS_FLOAT_IN_RANGE'>"
p322
sS'TBODY'
p323
S"<class 'gluon.html.TBODY'>"
p324
sS'CAT'
p325
S"<class 'gluon.html.CAT'>"
p326
sS'Field'
p327
S"<class 'pydal.objects.Field'>"
p328
sS'IS_LIST_OF_EMAILS'
p329
S"<class 'gluon.validators.IS_LIST_OF_EMAILS'>"
p330
sS'DIV'
p331
S"<class 'gluon.html.DIV'>"
p332
sS'LEGEND'
p333
S"<class 'gluon.html.LEGEND'>"
p334
sS'COLGROUP'
p335
S"<class 'gluon.html.COLGROUP'>"
p336
sS'DAL'
p337
S"<class 'pydal.base.DAL'>"
p338
sS'ASSIGNJS'
p339
S'<function ASSIGNJS>'
p340
sS'TR'
p341
S"<class 'gluon.html.TR'>"
p342
sS'__package__'
p343
S'None'
p344
sS'valoreNonDefinito'
p345
S'None'
p346
sS'IFRAME'
p347
S"<class 'gluon.html.IFRAME'>"
p348
sS'TD'
p349
S"<class 'gluon.html.TD'>"
p350
sS'PluginManager'
p351
S"<class 'gluon.tools.PluginManager'>"
p352
sS'IS_URL'
p353
S"<class 'gluon.validators.IS_URL'>"
p354
sS'A'
S"<class 'gluon.html.A'>"
p355
sS'STYLE'
p356
S"<class 'gluon.html.STYLE'>"
p357
sS'IS_DATETIME_IN_RANGE'
p358
S"<class 'gluon.validators.IS_DATETIME_IN_RANGE'>"
p359
sS'IS_IMAGE'
p360
S"<class 'gluon.validators.IS_IMAGE'>"
p361
sS'I'
S"<class 'gluon.html.I'>"
p362
sS'IS_NOT_IN_DB'
p363
S"<class 'gluon.validators.IS_NOT_IN_DB'>"
p364
sg122
S"<Storage {'body': <cStringIO.StringO object at 0...000000000433E748>, 'view': 'default/index.html'}>"
p365
sS'THEAD'
p366
S"<class 'gluon.html.THEAD'>"
p367
sS'ANY_OF'
p368
S"<class 'gluon.validators.ANY_OF'>"
p369
sS'IS_NULL_OR'
p370
S"<class 'gluon.validators.IS_EMPTY_OR'>"
p371
sg61
S"<Storage {'_vars': None, 'function': 'index', 'c...ebApps\\\\myWebApps\\\\web2py\\\\applications\\\\CUP\\\\'}>"
p372
sS'IS_EXPR'
p373
S"<class 'gluon.validators.IS_EXPR'>"
p374
sS'IS_IN_SET'
p375
S"<class 'gluon.validators.IS_IN_SET'>"
p376
sS'IS_UPLOAD_FILENAME'
p377
S"<class 'gluon.validators.IS_UPLOAD_FILENAME'>"
p378
sS'IS_DECIMAL_IN_RANGE'
p379
S"<class 'gluon.validators.IS_DECIMAL_IN_RANGE'>"
p380
sS'TT'
p381
S"<class 'gluon.html.TT'>"
p382
sS'T'
S'<gluon.languages.translator object>'
p383
sssS'traceback'
p384
S'Traceback (most recent call last):\n  File "C:\\Users\\Administrator.DATASCIENCEVM\\Dropbox\\______________myDevProjects\\myWebApps\\myWebApps\\web2py\\gluon\\restricted.py", line 227, in restricted\n    exec ccode in environment\n  File "C:\\Users\\Administrator.DATASCIENCEVM\\Dropbox\\______________myDevProjects\\myWebApps\\myWebApps\\web2py\\applications\\CUP\\models\\db.py", line 120, in <module>\n    db.Comune.import_from_csv_file(open(\'Comune.csv\',\'r\'))\nIOError: [Errno 2] No such file or directory: \'Comune.csv\'\n'
p385
s.