(dp1
S'output'
p2
S"<type 'exceptions.KeyError'> 'Cannot resolve reference Comune in Cliente definition'"
p3
sS'layer'
p4
S'C:\\Users\\Administrator.DATASCIENCEVM\\Dropbox\\______________myDevProjects\\myWebApps\\myWebApps\\web2py\\applications\\CUP\\models\\db.py'
p5
sS'code'
p6
S'# -*- coding: utf-8 -*-\n\n#########################################################################\n## This scaffolding model makes your app work on Google App Engine too\n## File is released under public domain and you can use without limitations\n#########################################################################\n\n## if SSL/HTTPS is properly configured and you want all HTTP requests to\n## be redirected to HTTPS, uncomment the line below:\n# request.requires_https()\n\n## app configuration made easy. Look inside private/appconfig.ini\nfrom gluon.contrib.appconfig import AppConfig\n## once in production, remove reload=True to gain full speed\nmyconf = AppConfig(reload=True)\n\n\nif not request.env.web2py_runtime_gae:\n    ## if NOT running on Google App Engine use SQLite or other DB\n    db = DAL(myconf.take(\'db.uri\'), pool_size=myconf.take(\'db.pool_size\', cast=int), check_reserved=[\'all\']) #qui potrei mettere migrate=False\nelse:\n    ## connect to Google BigTable (optional \'google:datastore://namespace\')\n    db = DAL(\'google:datastore+ndb\')\n    ## store sessions and tickets there\n    session.connect(request, response, db=db)\n    ## or store session in Memcache, Redis, etc.\n    ## from gluon.contrib.memdb import MEMDB\n    ## from google.appengine.api.memcache import Client\n    ## session.connect(request, response, db = MEMDB(Client()))\n\n## by default give a view/generic.extension to all actions from localhost\n## none otherwise. a pattern can be \'controller/function.extension\'\nresponse.generic_patterns = [\'*\'] if request.is_local else []\n## choose a style for forms\nresponse.formstyle = myconf.take(\'forms.formstyle\')  # or \'bootstrap3_stacked\' or \'bootstrap2\' or other\nresponse.form_label_separator = myconf.take(\'forms.separator\')\n\n\n## (optional) optimize handling of static files\n# response.optimize_css = \'concat,minify,inline\'\n# response.optimize_js = \'concat,minify,inline\'\n## (optional) static assets folder versioning\n# response.static_version = \'0.0.0\'\n#########################################################################\n## Here is sample code if you need for\n## - email capabilities\n## - authentication (registration, login, logout, ... )\n## - authorization (role based authorization)\n## - services (xml, csv, json, xmlrpc, jsonrpc, amf, rss)\n## - old style crud actions\n## (more options discussed in gluon/tools.py)\n#########################################################################\n\nfrom gluon.tools import Auth, Service, PluginManager\n\nauth = Auth(db)\nservice = Service()\nplugins = PluginManager()\n\n## create all tables needed by auth if not custom tables\nauth.define_tables(username=False, signature=False)\n\n## configure email\nmail = auth.settings.mailer\nmail.settings.server = \'logging\' if request.is_local else myconf.take(\'smtp.server\')\nmail.settings.sender = myconf.take(\'smtp.sender\')\nmail.settings.login = myconf.take(\'smtp.login\')\n\n## configure auth policy\nauth.settings.registration_requires_verification = False\nauth.settings.registration_requires_approval = False\nauth.settings.reset_password_requires_verification = True\n\n#########################################################################\n## Define your tables below (or better in another model file) for example\n##\n## >>> db.define_table(\'mytable\',Field(\'myfield\',\'string\'))\n##\n## Fields can be \'string\',\'text\',\'password\',\'integer\',\'double\',\'boolean\'\n##       \'date\',\'time\',\'datetime\',\'blob\',\'upload\', \'reference TABLENAME\'\n## There is an implicit \'id integer autoincrement\' field\n## Consult manual for more options, validators, etc.\n##\n## More API examples for controllers:\n##\n## >>> db.mytable.insert(myfield=\'value\')\n## >>> rows=db(db.mytable.myfield==\'value\').select(db.mytable.ALL)\n## >>> for row in rows: print row.id, row.myfield\n#########################################################################\n\n# My application DB\n# WARNING: notnull=True, default=\'NULL\' is a contradition and generates a strange error after some lines !!!!\n# The following source code was generated by SQLDesigner and reordered to avoid missing reference (eg. Servizio must come before Categoria_servizio which refers to it)\n\n\n#mie variabili\nvaloreNonDefinito=None\nmostraCodiceNome=\' %(codice)s %(nome)s\'\n\n#schema DB creato a partire da (ma non identico a) schema ER del 16/03/2016\n\n#abilito il versioning del db\nauth.enable_record_versioning(db)\n\n#campi comuni a tutte le tabelle\nimport uuid\nField_uuid = Field(\'uuid\', length=64, default=lambda:str(uuid.uuid4()))\nFields_signature = auth.signature\n#db._common_fields.append(Fields_signature) #anche se questa riga viene prima i campi vengono appesi dopo quelli definiti dopo\n#db._common_fields.append(Field_uuid) \n\n#tabelle e relazioni\ndb.define_table("Categoria_servizio",\n    Field("codice", "string", default=valoreNonDefinito,length=3),\n    Field("nome", "string", default=valoreNonDefinito))#,\n    #migrate=False)\n\ndb.define_table("Stato_prestazione",\n    Field("codice", "string", notnull=True, default=valoreNonDefinito, length=3),\n    Field("nome", "string", default=valoreNonDefinito))\n\n#db.define_table("Comune")\n#if db(db.Comune.id>0).isempty():\n#    db.Comune.import_from_csv_file(open(\'Comune.csv\',\'r\'))\ndb.auth_user\nAgente = db.Table(db,"Agente",\n    Field_uuid,\n    Fields_signature,\n    Field("id_auth_user", "reference auth_user"),\n    Field("codice", "string", default=valoreNonDefinito),\n    Field("nome", "string", default=valoreNonDefinito),\n    Field("cap", "string", default=\'00000\', length=5),\n    Field("via", "string", default=valoreNonDefinito),\n    Field("id_Comune", "reference Comune"),\n    Field("descrizione", "text", default=valoreNonDefinito))\nAgente.id_auth_user.requires=IS_IN_DB( db, \'auth_user.id\', \' %(first_name)s %(last_name)s (%(email)s)\') \n#Agente.id_auth_user.requires=IS_IN_DB( db, \'comune.id\', \' %(Denominazione in italiano)s %(auth_user.name)s\') \n\ndb.define_table("Cliente", \n    Agente)\ndb.define_table("Fornitore", \n    Agente)\n\n#il codice precedente \xc3\xa8 equivalente a \n#db.define_table("Cliente",\n#    Field("id_auth_user", "reference auth_user"),\n#    Field("codice", "string", default=valoreNonDefinito),\n#    Field("nome", "string", default=None),\n#    Field("cap", "string", default=\'00000\', length=5),\n#    Field("via", "string", default=None),\n#    Field("descrizione", "text", default=None))\n#db.define_table("Fornitore",\n#    Field("id_auth_user", "reference auth_user"),\n#    Field("codice", "string", default=valoreNonDefinito),\n#    Field("nome", "string", default=None),\n#    Field("cap", "string", default=\'00000\', length=5),\n#    Field("via", "string", default=None),\n#    Field("descrizione", "text", default=None))\n#db.Cliente.id_auth_user.requires=IS_IN_DB( db, \'auth_user.id\', \'\')\n#db.Fornitore.id_auth_user.requires=IS_IN_DB( db, \'auth_user.id\', \'\')\n\ndb.define_table("Servizio",\n    Field_uuid,\n    Fields_signature,\n    Field("id_Categoria_servizio", "reference Categoria_servizio"),\n    Field("codice", "string", default=valoreNonDefinito),\n    Field("nome", "string", default=valoreNonDefinito),\n    Field("descrizione", "text", default=valoreNonDefinito),\n    Field("prezzo_SSR", "integer", default=valoreNonDefinito),\n    Field("ticket_SSR", "double", default=valoreNonDefinito))\ndb.Servizio.id_Categoria_servizio.requires=IS_IN_DB( db, \'Categoria_servizio.id\', mostraCodiceNome)\n\ndb.define_table("Prestazione",\n    Field_uuid,\n    Fields_signature,\n    Field("id_Servizio", "reference Servizio"),\n    Field("id_Fornitore", "reference Fornitore"),\n    Field("id_Cliente", "reference Cliente"),\n    Field("id_Stato_prestazione", "reference Stato_prestazione"),\n    Field("messaggio_utente", "text", default=valoreNonDefinito),\n    Field("messaggio_studio", "text", default=valoreNonDefinito),\n    Field("servizio_richiesto_disponibile", "boolean", default=valoreNonDefinito),\n    Field("giorno", "date", default=valoreNonDefinito),\n    Field("ora", "time", default=valoreNonDefinito),\n    Field("prezzo", "double", default=valoreNonDefinito))\ndb.Prestazione.id_Servizio.requires=IS_IN_DB( db, \'Servizio.id\', mostraCodiceNome)\ndb.Prestazione.id_Fornitore.requires=IS_IN_DB( db, \'Fornitore.id\', mostraCodiceNome)\ndb.Prestazione.id_Cliente.requires=IS_IN_DB( db, \'Cliente.id\', mostraCodiceNome)\ndb.Prestazione.id_Stato_prestazione.requires=IS_IN_DB( db, \'Stato_prestazione.id\', mostraCodiceNome)\n\ndb.define_table("Servizio_disponibile",\n    Field_uuid,\n    Fields_signature,\n    Field("id_Servizio", "reference Servizio"),\n    Field("id_Fornitore", "reference Fornitore"),\n    Field("id_Categoria_servizio", "reference Categoria_servizio"),\n    Field("Lunedi_mattina", "boolean", default=valoreNonDefinito),\n    Field("Lunedi_pomeriggio", "boolean", default=valoreNonDefinito),\n    Field("Martedi_mattina", "boolean", default=valoreNonDefinito),\n    Field("Martedi_pomeriggio", "boolean", default=valoreNonDefinito),\n    Field("Mercoledi_mattina", "boolean", default=valoreNonDefinito),\n    Field("Mercoledi_pomeriggio", "boolean", default=valoreNonDefinito),\n    Field("Giovedi_mattina", "boolean", default=valoreNonDefinito),\n    Field("Giovedi_pomeriggio", "boolean", default=valoreNonDefinito),\n    Field("Venerdi_mattina", "boolean", default=valoreNonDefinito),\n    Field("Venerdi_pomeriggio", "boolean", default=valoreNonDefinito),\n    Field("Sabato_mattina", "boolean", default=valoreNonDefinito),\n    Field("Sabato_pomeriggio", "boolean", default=valoreNonDefinito),\n    Field("Domenica_mattina", "boolean", default=valoreNonDefinito),\n    Field("Domenica_pomeriggio", "boolean", default=valoreNonDefinito),\n    Field("prezzo_listino", "double", default=valoreNonDefinito),\n    Field("prezzo_medio", "integer", default=valoreNonDefinito))\ndb.Servizio_disponibile.id_Servizio.requires=IS_IN_DB( db, \'Servizio.id\', mostraCodiceNome)\ndb.Servizio_disponibile.id_Fornitore.requires=IS_IN_DB( db, \'Fornitore.id\', mostraCodiceNome)\ndb.Servizio_disponibile.id_Categoria_servizio.requires=IS_IN_DB( db, \'Categoria_servizio.id\', mostraCodiceNome)\n\ndb.define_table("Soddisfazione",\n    Field_uuid,\n    Fields_signature,\n    Field("punteggio_cliente", "integer", default=valoreNonDefinito),\n    Field("commento_cliente", "text", default=valoreNonDefinito),\n    Field("commento_fornitore", "text", default=valoreNonDefinito),\n    Field("commento_cliente_pubblicato", "text", default=valoreNonDefinito),\n    Field("commento_fornitore_pubblicato", "text", default=valoreNonDefinito),\n    Field("id_Fornitore", "reference Fornitore"),\n    Field("id_Cliente", "reference Cliente"),\n    Field("pubblicato", "boolean", default=valoreNonDefinito))\ndb.Soddisfazione.id_Fornitore.requires=IS_IN_DB( db, \'Fornitore.id\', mostraCodiceNome)\ndb.Soddisfazione.id_Cliente.requires=IS_IN_DB( db, \'Cliente.id\', mostraCodiceNome)\n\n""" Relations between tables (remove fields you don\'t need from requires) """\n#db.Agente.id_auth_user.requires=IS_IN_DB( db, \'auth_user.id\', \'\') \n# equivalente a \n#db.Cliente.id_auth_user.requires=IS_IN_DB( db, \'auth_user.id\', \'\')\n#db.Fornitore.id_auth_user.requires=IS_IN_DB( db, \'auth_user.id\', \'\')\n#db.Servizio.id_Categoria_servizio.requires=IS_IN_DB( db, \'Categoria_servizio.id\', \' %(codice)s\')\n#db.Prestazione.id_Servizio.requires=IS_IN_DB( db, \'Servizio.id\', \' %(id_Categoria_servizio)s %(codice)s %(nome)s %(descrizione)s %(prezzo_SSR)s %(ticket_SSR)s\')\n#db.Prestazione.id_Fornitore.requires=IS_IN_DB( db, \'Fornitore.id\', \' %(id_auth_user)s %(codice)s %(nome)s %(cap)s %(via)s %(descrizione)s\')\n#db.Prestazione.id_Cliente.requires=IS_IN_DB( db, \'Cliente.id\', \' %(id_auth_user)s %(codice)s %(nome)s %(cap)s %(via)s %(descrizione)s\')\n#db.Prestazione.id_Stato_prestazione.requires=IS_IN_DB( db, \'Stato_prestazione.id\', \' %(codice)s\')\n#db.Servizio_disponibile.id_Servizio.requires=IS_IN_DB( db, \'Servizio.id\', \' %(id_Categoria_servizio)s %(codice)s %(nome)s %(descrizione)s %(prezzo_SSR)s %(ticket_SSR)s\')\n#db.Servizio_disponibile.id_Fornitore.requires=IS_IN_DB( db, \'Fornitore.id\', \' %(id_auth_user)s %(codice)s %(nome)s %(cap)s %(via)s %(descrizione)s\')\n#db.Servizio_disponibile.id_Categoria_servizio.requires=IS_IN_DB( db, \'Categoria_servizio.id\', \' %(codice)s\')\n#db.Soddisfazione.id_Fornitore.requires=IS_IN_DB( db, \'Fornitore.id\', \' %(id_auth_user)s %(codice)s %(nome)s %(cap)s %(via)s %(descrizione)s\')\n#db.Soddisfazione.id_Cliente.requires=IS_IN_DB( db, \'Cliente.id\', \' %(id_auth_user)s %(codice)s %(nome)s %(cap)s %(via)s %(descrizione)s\')\n\n#DB basato su schema del 12 marzo 2016\n#db.define_table("Categoria_servizio",\n#    Field("codice", "string", default=None),\n#    Field("codice_numerico", "string", default=None))\n\n#db.define_table("Stato_prestazione",\n#    Field("codice", "string", notnull=True, default=\'Richiesta\'),\n#    Field("codice_numerico", "integer", notnull=True, default=1))\n\n#db.define_table("Previsioni_servizio_disponibile",\n#    Field("link_informazioni", "string", default=None),\n#    Field("prezzo_medio", "double", default=None),\n#    Field("tempo_lista_attesa_medio", "double", default=None),\n#    Field("tempo_attesa_medio", "double", default=None),\n#    Field("tempo_durata_medio", "double", default=None),\n#    Field("tempo_informazione_medio", "double", default=None),\n#    Field("probabilita_efficienza_organizzativa", "double", default=None),\n#    Field("probabilita_efficienza_comunicativa", "double", default=None))\n\n##db.define_table("auth_user",)\n\n#db.define_table("Cliente",\n#    Field("id_auth_user", "reference auth_user"),\n#    Field("codice", "string", default=None),\n#    Field("codice_numerico", "string", default=None),\n#    Field("nome", "string", default=None),\n#    Field("cap", "string", default=None),\n#    Field("via", "string", default=None),\n#    Field("descrizione", "text", default=None),\n#    Field("link_informazioni", "string", default=None))\n\n#db.define_table("Fornitore",\n#    Field("id_auth_user", "reference auth_user"),\n#    Field("codice", "string", default=None),\n#    Field("codice_numerico", "string", default=None),\n#    Field("nome", "string", default=None),\n#    Field("cap", "string", default=None),\n#    Field("via", "string", default=None),\n#    Field("descrizione", "text", default=None),\n#    Field("link_informazioni", "string", default=None))\n\n#db.define_table("Servizio",\n#     Field("id_Categoria_servizio", "reference Categoria_servizio"),\n#     Field("codice", "string", default=None),\n#     Field("codicenumerico", "integer", default=None),\n#     Field("nome", "string", default=None),\n#     Field("descrizione", "text", default=None),\n#     Field("link_informazioni", "string", default=None),\n#     Field("consenso_informato_da_firmare", "boolean", default=None))\n\n#db.define_table("Prestazione",\n#     Field("id_Servizio", "reference Servizio"),\n#     Field("id_Fornitore", "reference Fornitore"),\n#     Field("id_Cliente", "reference Cliente"),\n#     Field("id_Stato_prestazione", "reference Stato_prestazione"),\n#     Field("messaggio_utente", "text", default=None),\n#     Field("messaggio_studio", "text", default=None),\n#     Field("servizio_richiesto_non_disponibile", "boolean", default=None),\n#     Field("servizio_richiesto_con_codice_esenzione", "boolean", default=None),\n#     Field("codice_esenzione", "string", default=None),\n#     Field("giorno", "date", default=None),\n#     Field("ora", "time", default=None),\n#     Field("prezzo_SSR", "double", default=None),\n#     Field("ticket_SSR", "integer", default=None),\n#     Field("prezzo_fornitore", "double", default=None),\n#     Field("IVA", "double", default=None),\n#     Field("prezzo_bolli", "integer", default=None))\n\n#db.define_table("Servizio_disponibile",\n#    Field("id_Servizio", "reference Servizio"),\n#    Field("id_Fornitore", "reference Fornitore"),\n#    Field("id_Categoria_servizio", "reference Categoria_servizio"),\n#    Field("id_Previsioni_servizio_disponibile", "reference Previsioni_servizio_disponibile"),\n#    Field("Lunedi_mattina", "boolean", default=None),\n#    Field("Lunedi_pomeriggio", "boolean", default=None),\n#    Field("Martedi_mattina", "boolean", default=None),\n#    Field("Martedi_pomeriggio", "boolean", default=None),\n#    Field("Mercoledi_mattina", "boolean", default=None),\n#    Field("Mercoledi_pomeriggio", "boolean", default=None),\n#    Field("Giovedi_mattina", "boolean", default=None),\n#    Field("Giovedi_pomeriggio", "boolean", default=None),\n#    Field("Venerdi_mattina", "boolean", default=None),\n#    Field("Venerdi_pomeriggio", "boolean", default=None),\n#    Field("Sabato_mattina", "boolean", default=None),\n#    Field("Sabato_pomeriggio", "boolean", default=None),\n#    Field("Domenica_mattina", "boolean", default=None),\n#    Field("Domenica_pomeriggio", "boolean", default=None),\n#    Field("prezzo_locale", "integer", default=None))\n\n#db.define_table("Performance",\n#    Field("id_Prestazione", "reference Prestazione"),\n#    Field("data_effettiva", "date", default=None),\n#    Field("ora_effettiva", "time", default=None),\n#    Field("prezzo_pagato", "integer", default=None),\n#    Field("tempo_attesa", "double", default=None),\n#    Field("tempo_esecuzione", "double", default=None),\n#    Field("tempo_informazione", "double", default=None),\n#    Field("informazioni_fornite_a_voce", "boolean", default=None),\n#    Field("informazioni_fornite_con_mezzi_di_supporto", "boolean", default=None),\n#    Field("consenso_informato_firmato", "boolean", default=None))\n\n#db.define_table("Soddisfazione",\n#    Field("id_Prestazione", "reference Prestazione"),\n#    Field("punteggio_cliente", "integer", default=None),\n#    Field("commento_cliente", "text", default=None),\n#    Field("commento_fornitore", "text", default=None),\n#    Field("commento_cliente_pubblicato", "text", default=None),\n#    Field("commento_fornitore_pubblicato", "text", default=None))\n\n#db.define_table("Prezzi_SSR",\n#    Field("id_Servizio", "reference Servizio"),\n#    Field("codice_regione", "integer", default=None),\n#    Field("nome_regione", "integer", default=None),\n#    Field("prezzo_al_cliente", "double", default=None),\n#    Field("ticket", "integer", default=None),\n#    Field("prezzo_al_fornitore", "double", default=None),\n#    Field("data_inizio", "date", default=None),\n#    Field("in_vigore", "boolean", default=1),\n#    Field("data_fine", "date", default=None))\n\n#""" Relations between tables (remove fields you don\'t need from requires) """\n#db.Cliente.id_auth_user.requires=IS_IN_DB( db, \'auth_user.id\', \'\')\n#db.Fornitore.id_auth_user.requires=IS_IN_DB( db, \'auth_user.id\', \'\')\n#db.Servizio.id_Categoria_servizio.requires=IS_IN_DB( db, \'Categoria_servizio.id\', \' %(codice)s %(codice_numerico)s\')\n#db.Prestazione.id_Servizio.requires=IS_IN_DB( db, \'Servizio.id\', \' %(id_Categoria_servizio)s %(codice)s %(codice_numerico)s %(nome)s %(descrizione)s %(link_informazioni)s %(consenso_informato_da_firmare)s\')\n#db.Prestazione.id_Fornitore.requires=IS_IN_DB( db, \'Fornitore.id\', \' %(id_auth_user)s %(codice)s %(codice_numerico)s %(nome)s %(cap)s %(via)s %(descrizione)s %(link_informazioni)s\')\n#db.Prestazione.id_Cliente.requires=IS_IN_DB( db, \'Cliente.id\', \' %(id_auth_user)s %(codice)s %(codice_numerico)s %(nome)s %(cap)s %(via)s %(descrizione)s %(link_informazioni)s\')\n#db.Prestazione.id_Stato_prestazione.requires=IS_IN_DB( db, \'Stato_prestazione.id\', \' %(codice)s %(codice_numerico)s\')\n#db.Servizio_disponibile.id_Servizio.requires=IS_IN_DB( db, \'Servizio.id\', \' %(id_Categoria_servizio)s %(codice)s %(codice_numerico)s %(nome)s %(descrizione)s %(link_informazioni)s %(consenso_informato_da_firmare)s\')\n#db.Servizio_disponibile.id_Fornitore.requires=IS_IN_DB( db, \'Fornitore.id\', \' %(id_auth_user)s %(codice)s %(codice_numerico)s %(nome)s %(cap)s %(via)s %(descrizione)s %(link_informazioni)s\')\n#db.Servizio_disponibile.id_Categoria_servizio.requires=IS_IN_DB( db, \'Categoria_servizio.id\', \' %(codice)s %(codice_numerico)s\')\n#db.Servizio_disponibile.id_Previsioni_servizio_disponibile.requires=IS_IN_DB( db, \'Previsioni_servizio_disponibile.id\', \' %(link_informazioni)s %(prezzo_medio)s %(tempo_lista_attesa_medio)s %(tempo_attesa_medio)s %(tempo_durata_medio)s %(tempo_informazione_medio)s %(probabilita_efficienza_organizzativa)s %(probabilita_efficienza_comunicativa)s\')\n#db.Performance.id_Prestazione.requires=IS_IN_DB( db, \'Prestazione.id\', \' %(id_Servizio)s %(id_Fornitore)s %(id_Cliente)s %(id_Stato_prestazione)s %(messaggio_utente)s %(messaggio_studio)s %(servizio_richiesto_non_disponibile)s %(servizio_richiesto_con_codice_esenzione)s %(codice_esenzione)s %(data)s %(ora)s %(prezzo_SSR)s %(ticket_SSR)s %(prezzo_fornitore)s %(IVA)s %(prezzo_bolli)s\')\n#db.Soddisfazione.id_Prestazione.requires=IS_IN_DB( db, \'Prestazione.id\', \' %(id_Servizio)s %(id_Fornitore)s %(id_Cliente)s %(id_Stato_prestazione)s %(messaggio_utente)s %(messaggio_studio)s %(servizio_richiesto_non_disponibile)s %(servizio_richiesto_con_codice_esenzione)s %(codice_esenzione)s %(data)s %(ora)s %(prezzo_SSR)s %(ticket_SSR)s %(prezzo_fornitore)s %(IVA)s %(prezzo_bolli)s\')\n#db.Prezzi_SSR.id_Servizio.requires=IS_IN_DB( db, \'Servizio.id\', \' %(id_Categoria_servizio)s %(codice)s %(codice_numerico)s %(nome)s %(descrizione)s %(link_informazioni)s %(consenso_informato_da_firmare)s\')\n\n\n# end generated source code from SQLDesigner\n## after defining tables, uncomment below to enable auditing\n# auth.enable_record_versioning(db)'
p7
sS'snapshot'
p8
(dp9
S'exception'
p10
(dp11
S'__hash__'
p12
S"<method-wrapper '__hash__' of exceptions.KeyError object>"
p13
sS'__setattr__'
p14
S"<method-wrapper '__setattr__' of exceptions.KeyError object>"
p15
sS'__reduce_ex__'
p16
S'<built-in method __reduce_ex__ of exceptions.KeyError object>'
p17
sS'__getslice__'
p18
S"<method-wrapper '__getslice__' of exceptions.KeyError object>"
p19
sS'__getitem__'
p20
S"<method-wrapper '__getitem__' of exceptions.KeyError object>"
p21
sS'__setstate__'
p22
S'<built-in method __setstate__ of exceptions.KeyError object>'
p23
sS'__reduce__'
p24
S'<built-in method __reduce__ of exceptions.KeyError object>'
p25
sS'__str__'
p26
S"<method-wrapper '__str__' of exceptions.KeyError object>"
p27
sS'__format__'
p28
S'<built-in method __format__ of exceptions.KeyError object>'
p29
sS'__getattribute__'
p30
S"<method-wrapper '__getattribute__' of exceptions.KeyError object>"
p31
sS'__class__'
p32
S"<type 'exceptions.KeyError'>"
p33
sS'__unicode__'
p34
S'<built-in method __unicode__ of exceptions.KeyError object>'
p35
sS'__delattr__'
p36
S"<method-wrapper '__delattr__' of exceptions.KeyError object>"
p37
sS'__subclasshook__'
p38
S'<built-in method __subclasshook__ of type object>'
p39
sS'__repr__'
p40
S"<method-wrapper '__repr__' of exceptions.KeyError object>"
p41
sS'__dict__'
p42
S'{}'
p43
sS'args'
p44
S"('Cannot resolve reference Comune in Cliente definition',)"
p45
sS'__sizeof__'
p46
S'<built-in method __sizeof__ of exceptions.KeyError object>'
p47
sS'__doc__'
p48
S"'Mapping key not found.'"
p49
sS'__init__'
p50
S"<method-wrapper '__init__' of exceptions.KeyError object>"
p51
sS'__new__'
p52
S'<built-in method __new__ of type object>'
p53
ssS'evalue'
p54
S"'Cannot resolve reference Comune in Cliente definition'"
p55
sS'request'
p56
cgluon.html
XML_unpickle
p57
(S's\x02]\x00\x00<div><table><tr><td style="font-weight:bold;vertical-align:top;">ajax</td><td style="vertical-align:top;">:</td><td><div>False</div></td></tr><tr><td style="font-weight:bold;vertical-align:top;">application</td><td style="vertical-align:top;">:</td><td><div>CUP</div></td></tr><tr><td style="font-weight:bold;vertical-align:top;">args</td><td style="vertical-align:top;">:</td><td><div><table></table></div></td></tr><tr><td style="font-weight:bold;vertical-align:top;">cid</td><td style="vertical-align:top;">:</td><td><div>None</div></td></tr><tr><td style="font-weight:bold;vertical-align:top;">client</td><td style="vertical-align:top;">:</td><td><div>127.0.0.1</div></td></tr><tr><td style="font-weight:bold;vertical-align:top;">controller</td><td style="vertical-align:top;">:</td><td><div>default</div></td></tr><tr><td style="font-weight:bold;vertical-align:top;">cookies</td><td style="vertical-align:top;">:</td><td><div><table><tr><td style="font-weight:bold;vertical-align:top;">session_id_admin</td><td style="vertical-align:top;">:</td><td><div>127.0.0.1-a2b89f08-b13a-4832-ab6a-f0f0d60d968c<table><tr><td style="font-weight:bold;vertical-align:top;">comment</td><td style="vertical-align:top;">:</td><td><div></div></td></tr><tr><td style="font-weight:bold;vertical-align:top;">domain</td><td style="vertical-align:top;">:</td><td><div></div></td></tr><tr><td style="font-weight:bold;vertical-align:top;">expires</td><td style="vertical-align:top;">:</td><td><div></div></td></tr><tr><td style="font-weight:bold;vertical-align:top;">httponly</td><td style="vertical-align:top;">:</td><td><div></div></td></tr><tr><td style="font-weight:bold;vertical-align:top;">max-age</td><td style="vertical-align:top;">:</td><td><div></div></td></tr><tr><td style="font-weight:bold;vertical-align:top;">path</td><td style="vertical-align:top;">:</td><td><div></div></td></tr><tr><td style="font-weight:bold;vertical-align:top;">secure</td><td style="vertical-align:top;">:</td><td><div></div></td></tr><tr><td style="font-weight:bold;vertical-align:top;">version</td><td style="vertical-align:top;">:</td><td><div></div></td></tr></table></div></td></tr><tr><td style="font-weight:bold;vertical-align:top;">session_id_cup</td><td style="vertical-align:top;">:</td><td><div>127.0.0.1-b8143fa6-805b-4b44-bc8a-4cb49edf6853<table><tr><td style="font-weight:bold;vertical-align:top;">comment</td><td style="vertical-align:top;">:</td><td><div></div></td></tr><tr><td style="font-weight:bold;vertical-align:top;">domain</td><td style="vertical-align:top;">:</td><td><div></div></td></tr><tr><td style="font-weight:bold;vertical-align:top;">expires</td><td style="vertical-align:top;">:</td><td><div></div></td></tr><tr><td style="font-weight:bold;vertical-align:top;">httponly</td><td style="vertical-align:top;">:</td><td><div></div></td></tr><tr><td style="font-weight:bold;vertical-align:top;">max-age</td><td style="vertical-align:top;">:</td><td><div></div></td></tr><tr><td style="font-weight:bold;vertical-align:top;">path</td><td style="vertical-align:top;">:</td><td><div></div></td></tr><tr><td style="font-weight:bold;vertical-align:top;">secure</td><td style="vertical-align:top;">:</td><td><div></div></td></tr><tr><td style="font-weight:bold;vertical-align:top;">version</td><td style="vertical-align:top;">:</td><td><div></div></td></tr></table></div></td></tr></table></div></td></tr><tr><td style="font-weight:bold;vertical-align:top;">env</td><td style="vertical-align:top;">:</td><td><div><table><tr><td style="font-weight:bold;vertical-align:top;">HTTP_ACCEPT</td><td style="vertical-align:top;">:</td><td><div>text/html, application/xhtml+xml, */*</div></td></tr><tr><td style="font-weight:bold;vertical-align:top;">HTTP_ACCEPT_ENCODING</td><td style="vertical-align:top;">:</td><td><div>gzip, deflate, peerdist</div></td></tr><tr><td style="font-weight:bold;vertical-align:top;">HTTP_ACCEPT_LANGUAGE</td><td style="vertical-align:top;">:</td><td><div>it-IT</div></td></tr><tr><td style="font-weight:bold;vertical-align:top;">HTTP_CONNECTION</td><td style="vertical-align:top;">:</td><td><div>Keep-Alive</div></td></tr><tr><td style="font-weight:bold;vertical-align:top;">HTTP_COOKIE</td><td style="vertical-align:top;">:</td><td><div>session_id_cup=127.0.0.1-b8143fa6-805b-4b44-bc8a-4cb49edf6853; session_id_admin=127.0.0.1-a2b89f08-b13a-4832-ab6a-f0f0d60d968c</div></td></tr><tr><td style="font-weight:bold;vertical-align:top;">HTTP_HOST</td><td style="vertical-align:top;">:</td><td><div>localhost:8080</div></td></tr><tr><td style="font-weight:bold;vertical-align:top;">HTTP_REFERER</td><td style="vertical-align:top;">:</td><td><div>http://localhost:8080/CUP/appadmin/insert/db/Cliente</div></td></tr><tr><td style="font-weight:bold;vertical-align:top;">HTTP_USER_AGENT</td><td style="vertical-align:top;">:</td><td><div>Mozilla/5.0 (Windows NT 6.3; WOW64; Trident/7.0; Touch; rv:11.0) like Gecko</div></td></tr><tr><td style="font-weight:bold;vertical-align:top;">HTTP_X_P2P_PEERDIST</td><td style="vertical-align:top;">:</td><td><div>Version=1.1</div></td></tr><tr><td style="font-weight:bold;vertical-align:top;">HTTP_X_P2P_PEERDISTEX</td><td style="vertical-align:top;">:</td><td><div>MinContentInformation=1.0, MaxContentInformation=2.0</div></td></tr><tr><td style="font-weight:bold;vertical-align:top;">PATH_INFO</td><td style="vertical-align:top;">:</td><td><div>/CUP</div></td></tr><tr><td style="font-weight:bold;vertical-align:top;">QUERY_STRING</td><td style="vertical-align:top;">:</td><td><div></div></td></tr><tr><td style="font-weight:bold;vertical-align:top;">REMOTE_ADDR</td><td style="vertical-align:top;">:</td><td><div>127.0.0.1</div></td></tr><tr><td style="font-weight:bold;vertical-align:top;">REMOTE_PORT</td><td style="vertical-align:top;">:</td><td><div>51478</div></td></tr><tr><td style="font-weight:bold;vertical-align:top;">REQUEST_METHOD</td><td style="vertical-align:top;">:</td><td><div>GET</div></td></tr><tr><td style="font-weight:bold;vertical-align:top;">SCRIPT_NAME</td><td style="vertical-align:top;">:</td><td><div></div></td></tr><tr><td style="font-weight:bold;vertical-align:top;">SERVER_NAME</td><td style="vertical-align:top;">:</td><td><div>DataScienceVM</div></td></tr><tr><td style="font-weight:bold;vertical-align:top;">SERVER_PORT</td><td style="vertical-align:top;">:</td><td><div>8080</div></td></tr><tr><td style="font-weight:bold;vertical-align:top;">SERVER_PROTOCOL</td><td style="vertical-align:top;">:</td><td><div>HTTP/1.1</div></td></tr><tr><td style="font-weight:bold;vertical-align:top;">SERVER_SOFTWARE</td><td style="vertical-align:top;">:</td><td><div>Rocket 1.2.6</div></td></tr><tr><td style="font-weight:bold;vertical-align:top;">app_folders</td><td style="vertical-align:top;">:</td><td><div>set([&#x27;C:\\\\Users\\\\Administrator.DATASCIENCEVM\\\\Dropbox\\\\______________myDevProjects\\\\myWebApps\\\\myWebApps\\\\web2py\\\\applications\\\\admin\\\\&#x27;, &#x27;C:\\\\Users\\\\Administrator.DATASCIENCEVM\\\\Dropbox\\\\______________myDevProjects\\\\myWebApps\\\\myWebApps\\\\web2py\\\\applications\\\\CUP\\\\&#x27;])</div></td></tr><tr><td style="font-weight:bold;vertical-align:top;">applications_parent</td><td style="vertical-align:top;">:</td><td><div>C:\\Users\\Administrator.DATASCIENCEVM\\Dropbox\\______________myDevProjects\\myWebApps\\myWebApps\\web2py</div></td></tr><tr><td style="font-weight:bold;vertical-align:top;">cmd_args</td><td style="vertical-align:top;">:</td><td><div><table></table></div></td></tr><tr><td style="font-weight:bold;vertical-align:top;">cmd_options</td><td style="vertical-align:top;">:</td><td><div>&lt;Values at 0x3c58408: {&#x27;verbose&#x27;: False, &#x27;ip&#x27;: &#x27;localhost&#x27;, &#x27;debuglevel&#x27;: 30, &#x27;with_scheduler&#x27;: False, &#x27;ips&#x27;: [&#x27;192.168.1.100&#x27;, &#x27;fe80::4c2:1e42:fd13:5738%15&#x27;, &#x27;fe80::244b:ba1:e8b9:363d%12&#x27;, &#x27;2001:0:5ef5:79fd:4c2:1e42:fd13:5738&#x27;], &#x27;shutdown_timeout&#x27;: 5, &#x27;taskbar&#x27;: False, &#x27;with_coverage&#x27;: False, &#x27;scheduler_groups&#x27;: None, &#x27;port&#x27;: 8080, &#x27;maxthreads&#x27;: None, &#x27;softcron&#x27;: False, &#x27;server_name&#x27;: &#x27;DataScienceVM&#x27;, &#x27;bpython&#x27;: False, &#x27;nogui&#x27;: False, &#x27;pid_filename&#x27;: &#x27;httpserver.pid&#x27;, &#x27;print_errors&#x27;: False, &#x27;extcron&#x27;: False, &#x27;runcron&#x27;: False, &#x27;run_system_tests&#x27;: False, &#x27;test&#x27;: None, &#x27;folder&#x27;: &#x27;C:\\\\Users\\\\Administrator.DATASCIENCEVM\\\\Dropbox\\\\______________myDevProjects\\\\myWebApps\\\\myWebApps\\\\web2py&#x27;, &#x27;config&#x27;: &#x27;&#x27;, &#x27;minthreads&#x27;: None, &#x27;shell&#x27;: None, &#x27;run&#x27;: &#x27;&#x27;, &#x27;log_filename&#x27;: &#x27;httpserver.log&#x27;, &#x27;profiler_dir&#x27;: None, &#x27;args&#x27;: [&#x27;&#x27;], &#x27;socket_timeout&#x27;: 5, &#x27;ssl_ca_certificate&#x27;: None, &#x27;scheduler&#x27;: None, &#x27;interfaces&#x27;: None, &#x27;ssl_private_key&#x27;: &#x27;&#x27;, &#x27;gae&#x27;: None, &#x27;password&#x27;: &#x27;1234&#x27;, &#x27;request_queue_size&#x27;: 5, &#x27;ssl_certificate&#x27;: &#x27;&#x27;, &#x27;cronjob&#x27;: False, &#x27;numthreads&#x27;: None, &#x27;quiet&#x27;: False, &#x27;import_models&#x27;: False, &#x27;timeout&#x27;: 10, &#x27;plain&#x27;: False, &#x27;nobanner&#x27;: False}&gt;</div></td></tr><tr><td style="font-weight:bold;vertical-align:top;">db_sessions</td><td style="vertical-align:top;">:</td><td><div>set([])</div></td></tr><tr><td style="font-weight:bold;vertical-align:top;">debugging</td><td style="vertical-align:top;">:</td><td><div>False</div></td></tr><tr><td style="font-weight:bold;vertical-align:top;">gluon_parent</td><td style="vertical-align:top;">:</td><td><div>C:\\Users\\Administrator.DATASCIENCEVM\\Dropbox\\______________myDevProjects\\myWebApps\\myWebApps\\web2py</div></td></tr><tr><td style="font-weight:bold;vertical-align:top;">http_accept</td><td style="vertical-align:top;">:</td><td><div>text/html, application/xhtml+xml, */*</div></td></tr><tr><td style="font-weight:bold;vertical-align:top;">http_accept_encoding</td><td style="vertical-align:top;">:</td><td><div>gzip, deflate, peerdist</div></td></tr><tr><td style="font-weight:bold;vertical-align:top;">http_accept_language</td><td style="vertical-align:top;">:</td><td><div>it-IT</div></td></tr><tr><td style="font-weight:bold;vertical-align:top;">http_connection</td><td style="vertical-align:top;">:</td><td><div>Keep-Alive</div></td></tr><tr><td style="font-weight:bold;vertical-align:top;">http_cookie</td><td style="vertical-align:top;">:</td><td><div>session_id_cup=127.0.0.1-b8143fa6-805b-4b44-bc8a-4cb49edf6853; session_id_admin=127.0.0.1-a2b89f08-b13a-4832-ab6a-f0f0d60d968c</div></td></tr><tr><td style="font-weight:bold;vertical-align:top;">http_host</td><td style="vertical-align:top;">:</td><td><div>localhost:8080</div></td></tr><tr><td style="font-weight:bold;vertical-align:top;">http_referer</td><td style="vertical-align:top;">:</td><td><div>http://localhost:8080/CUP/appadmin/insert/db/Cliente</div></td></tr><tr><td style="font-weight:bold;vertical-align:top;">http_user_agent</td><td style="vertical-align:top;">:</td><td><div>Mozilla/5.0 (Windows NT 6.3; WOW64; Trident/7.0; Touch; rv:11.0) like Gecko</div></td></tr><tr><td style="font-weight:bold;vertical-align:top;">http_x_p2p_peerdist</td><td style="vertical-align:top;">:</td><td><div>Version=1.1</div></td></tr><tr><td style="font-weight:bold;vertical-align:top;">http_x_p2p_peerdistex</td><td style="vertical-align:top;">:</td><td><div>MinContentInformation=1.0, MaxContentInformation=2.0</div></td></tr><tr><td style="font-weight:bold;vertical-align:top;">is_jython</td><td style="vertical-align:top;">:</td><td><div>False</div></td></tr><tr><td style="font-weight:bold;vertical-align:top;">is_pypy</td><td style="vertical-align:top;">:</td><td><div>False</div></td></tr><tr><td style="font-weight:bold;vertical-align:top;">is_source</td><td style="vertical-align:top;">:</td><td><div>True</div></td></tr><tr><td style="font-weight:bold;vertical-align:top;">local_hosts</td><td style="vertical-align:top;">:</td><td><div><table><tr><td><div>DataScienceVM.SOS-NHS.local</div></td></tr><tr><td><div>192.168.1.100</div></td></tr><tr><td><div>::ffff:127.0.0.1</div></td></tr><tr><td><div>::1</div></td></tr><tr><td><div>2001:0:5ef5:79fd:4c2:1e42:fd13:5738</div></td></tr><tr><td><div>fe80::4c2:1e42:fd13:5738%15</div></td></tr><tr><td><div>fe80::244b:ba1:e8b9:363d%12</div></td></tr><tr><td><div>DataScienceVM</div></td></tr><tr><td><div>127.0.0.1</div></td></tr></table></div></td></tr><tr><td style="font-weight:bold;vertical-align:top;">path_info</td><td style="vertical-align:top;">:</td><td><div>/CUP</div></td></tr><tr><td style="font-weight:bold;vertical-align:top;">query_string</td><td style="vertical-align:top;">:</td><td><div></div></td></tr><tr><td style="font-weight:bold;vertical-align:top;">remote_addr</td><td style="vertical-align:top;">:</td><td><div>127.0.0.1</div></td></tr><tr><td style="font-weight:bold;vertical-align:top;">remote_port</td><td style="vertical-align:top;">:</td><td><div>51478</div></td></tr><tr><td style="font-weight:bold;vertical-align:top;">request_method</td><td style="vertical-align:top;">:</td><td><div>GET</div></td></tr><tr><td style="font-weight:bold;vertical-align:top;">request_uri</td><td style="vertical-align:top;">:</td><td><div>/CUP/default/index</div></td></tr><tr><td style="font-weight:bold;vertical-align:top;">script_name</td><td style="vertical-align:top;">:</td><td><div></div></td></tr><tr><td style="font-weight:bold;vertical-align:top;">server_name</td><td style="vertical-align:top;">:</td><td><div>DataScienceVM</div></td></tr><tr><td style="font-weight:bold;vertical-align:top;">server_port</td><td style="vertical-align:top;">:</td><td><div>8080</div></td></tr><tr><td style="font-weight:bold;vertical-align:top;">server_protocol</td><td style="vertical-align:top;">:</td><td><div>HTTP/1.1</div></td></tr><tr><td style="font-weight:bold;vertical-align:top;">server_software</td><td style="vertical-align:top;">:</td><td><div>Rocket 1.2.6</div></td></tr><tr><td style="font-weight:bold;vertical-align:top;">web2py_original_uri</td><td style="vertical-align:top;">:</td><td><div>/CUP</div></td></tr><tr><td style="font-weight:bold;vertical-align:top;">web2py_path</td><td style="vertical-align:top;">:</td><td><div>C:\\Users\\Administrator.DATASCIENCEVM\\Dropbox\\______________myDevProjects\\myWebApps\\myWebApps\\web2py</div></td></tr><tr><td style="font-weight:bold;vertical-align:top;">web2py_version</td><td style="vertical-align:top;">:</td><td><div>2.13.4-stable+timestamp.2015.12.26.04.59.39</div></td></tr><tr><td style="font-weight:bold;vertical-align:top;">wsgi.errors</td><td style="vertical-align:top;">:</td><td><div>&lt;visualstudio_py_debugger._DebuggerOutput object at 0x0000000002B87BA8&gt;</div></td></tr><tr><td style="font-weight:bold;vertical-align:top;">wsgi.file_wrapper</td><td style="vertical-align:top;">:</td><td><div>&lt;class wsgiref.util.FileWrapper at 0x0000000003BF6A08&gt;</div></td></tr><tr><td style="font-weight:bold;vertical-align:top;">wsgi.input</td><td style="vertical-align:top;">:</td><td><div>&lt;socket._fileobject object at 0x0000000006D09A98&gt;</div></td></tr><tr><td style="font-weight:bold;vertical-align:top;">wsgi.multiprocess</td><td style="vertical-align:top;">:</td><td><div>False</div></td></tr><tr><td style="font-weight:bold;vertical-align:top;">wsgi.multithread</td><td style="vertical-align:top;">:</td><td><div>True</div></td></tr><tr><td style="font-weight:bold;vertical-align:top;">wsgi.run_once</td><td style="vertical-align:top;">:</td><td><div>False</div></td></tr><tr><td style="font-weight:bold;vertical-align:top;">wsgi.url_scheme</td><td style="vertical-align:top;">:</td><td><div>http</div></td></tr><tr><td style="font-weight:bold;vertical-align:top;">wsgi.version</td><td style="vertical-align:top;">:</td><td><div><table><tr><td><div>1</div></td></tr><tr><td><div>0</div></td></tr></table></div></td></tr><tr><td style="font-weight:bold;vertical-align:top;">wsgi_errors</td><td style="vertical-align:top;">:</td><td><div>&lt;visualstudio_py_debugger._DebuggerOutput object at 0x0000000002B87BA8&gt;</div></td></tr><tr><td style="font-weight:bold;vertical-align:top;">wsgi_file_wrapper</td><td style="vertical-align:top;">:</td><td><div>&lt;class wsgiref.util.FileWrapper at 0x0000000003BF6A08&gt;</div></td></tr><tr><td style="font-weight:bold;vertical-align:top;">wsgi_input</td><td style="vertical-align:top;">:</td><td><div>&lt;socket._fileobject object at 0x0000000006D09A98&gt;</div></td></tr><tr><td style="font-weight:bold;vertical-align:top;">wsgi_multiprocess</td><td style="vertical-align:top;">:</td><td><div>False</div></td></tr><tr><td style="font-weight:bold;vertical-align:top;">wsgi_multithread</td><td style="vertical-align:top;">:</td><td><div>True</div></td></tr><tr><td style="font-weight:bold;vertical-align:top;">wsgi_run_once</td><td style="vertical-align:top;">:</td><td><div>False</div></td></tr><tr><td style="font-weight:bold;vertical-align:top;">wsgi_url_scheme</td><td style="vertical-align:top;">:</td><td><div>http</div></td></tr><tr><td style="font-weight:bold;vertical-align:top;">wsgi_version</td><td style="vertical-align:top;">:</td><td><div><table><tr><td><div>1</div></td></tr><tr><td><div>0</div></td></tr></table></div></td></tr></table></div></td></tr><tr><td style="font-weight:bold;vertical-align:top;">extension</td><td style="vertical-align:top;">:</td><td><div>html</div></td></tr><tr><td style="font-weight:bold;vertical-align:top;">folder</td><td style="vertical-align:top;">:</td><td><div>C:\\Users\\Administrator.DATASCIENCEVM\\Dropbox\\______________myDevProjects\\myWebApps\\myWebApps\\web2py\\applications\\CUP\\</div></td></tr><tr><td style="font-weight:bold;vertical-align:top;">function</td><td style="vertical-align:top;">:</td><td><div>index</div></td></tr><tr><td style="font-weight:bold;vertical-align:top;">global_settings</td><td style="vertical-align:top;">:</td><td><div><table><tr><td style="font-weight:bold;vertical-align:top;">app_folders</td><td style="vertical-align:top;">:</td><td><div>set([&#x27;C:\\\\Users\\\\Administrator.DATASCIENCEVM\\\\Dropbox\\\\______________myDevProjects\\\\myWebApps\\\\myWebApps\\\\web2py\\\\applications\\\\admin\\\\&#x27;, &#x27;C:\\\\Users\\\\Administrator.DATASCIENCEVM\\\\Dropbox\\\\______________myDevProjects\\\\myWebApps\\\\myWebApps\\\\web2py\\\\applications\\\\CUP\\\\&#x27;])</div></td></tr><tr><td style="font-weight:bold;vertical-align:top;">applications_parent</td><td style="vertical-align:top;">:</td><td><div>C:\\Users\\Administrator.DATASCIENCEVM\\Dropbox\\______________myDevProjects\\myWebApps\\myWebApps\\web2py</div></td></tr><tr><td style="font-weight:bold;vertical-align:top;">cmd_args</td><td style="vertical-align:top;">:</td><td><div><table></table></div></td></tr><tr><td style="font-weight:bold;vertical-align:top;">cmd_options</td><td style="vertical-align:top;">:</td><td><div>&lt;Values at 0x3c58408: {&#x27;verbose&#x27;: False, &#x27;ip&#x27;: &#x27;localhost&#x27;, &#x27;debuglevel&#x27;: 30, &#x27;with_scheduler&#x27;: False, &#x27;ips&#x27;: [&#x27;192.168.1.100&#x27;, &#x27;fe80::4c2:1e42:fd13:5738%15&#x27;, &#x27;fe80::244b:ba1:e8b9:363d%12&#x27;, &#x27;2001:0:5ef5:79fd:4c2:1e42:fd13:5738&#x27;], &#x27;shutdown_timeout&#x27;: 5, &#x27;taskbar&#x27;: False, &#x27;with_coverage&#x27;: False, &#x27;scheduler_groups&#x27;: None, &#x27;port&#x27;: 8080, &#x27;maxthreads&#x27;: None, &#x27;softcron&#x27;: False, &#x27;server_name&#x27;: &#x27;DataScienceVM&#x27;, &#x27;bpython&#x27;: False, &#x27;nogui&#x27;: False, &#x27;pid_filename&#x27;: &#x27;httpserver.pid&#x27;, &#x27;print_errors&#x27;: False, &#x27;extcron&#x27;: False, &#x27;runcron&#x27;: False, &#x27;run_system_tests&#x27;: False, &#x27;test&#x27;: None, &#x27;folder&#x27;: &#x27;C:\\\\Users\\\\Administrator.DATASCIENCEVM\\\\Dropbox\\\\______________myDevProjects\\\\myWebApps\\\\myWebApps\\\\web2py&#x27;, &#x27;config&#x27;: &#x27;&#x27;, &#x27;minthreads&#x27;: None, &#x27;shell&#x27;: None, &#x27;run&#x27;: &#x27;&#x27;, &#x27;log_filename&#x27;: &#x27;httpserver.log&#x27;, &#x27;profiler_dir&#x27;: None, &#x27;args&#x27;: [&#x27;&#x27;], &#x27;socket_timeout&#x27;: 5, &#x27;ssl_ca_certificate&#x27;: None, &#x27;scheduler&#x27;: None, &#x27;interfaces&#x27;: None, &#x27;ssl_private_key&#x27;: &#x27;&#x27;, &#x27;gae&#x27;: None, &#x27;password&#x27;: &#x27;1234&#x27;, &#x27;request_queue_size&#x27;: 5, &#x27;ssl_certificate&#x27;: &#x27;&#x27;, &#x27;cronjob&#x27;: False, &#x27;numthreads&#x27;: None, &#x27;quiet&#x27;: False, &#x27;import_models&#x27;: False, &#x27;timeout&#x27;: 10, &#x27;plain&#x27;: False, &#x27;nobanner&#x27;: False}&gt;</div></td></tr><tr><td style="font-weight:bold;vertical-align:top;">db_sessions</td><td style="vertical-align:top;">:</td><td><div>set([])</div></td></tr><tr><td style="font-weight:bold;vertical-align:top;">debugging</td><td style="vertical-align:top;">:</td><td><div>False</div></td></tr><tr><td style="font-weight:bold;vertical-align:top;">gluon_parent</td><td style="vertical-align:top;">:</td><td><div>C:\\Users\\Administrator.DATASCIENCEVM\\Dropbox\\______________myDevProjects\\myWebApps\\myWebApps\\web2py</div></td></tr><tr><td style="font-weight:bold;vertical-align:top;">is_jython</td><td style="vertical-align:top;">:</td><td><div>False</div></td></tr><tr><td style="font-weight:bold;vertical-align:top;">is_pypy</td><td style="vertical-align:top;">:</td><td><div>False</div></td></tr><tr><td style="font-weight:bold;vertical-align:top;">is_source</td><td style="vertical-align:top;">:</td><td><div>True</div></td></tr><tr><td style="font-weight:bold;vertical-align:top;">local_hosts</td><td style="vertical-align:top;">:</td><td><div><table><tr><td><div>DataScienceVM.SOS-NHS.local</div></td></tr><tr><td><div>192.168.1.100</div></td></tr><tr><td><div>::ffff:127.0.0.1</div></td></tr><tr><td><div>::1</div></td></tr><tr><td><div>2001:0:5ef5:79fd:4c2:1e42:fd13:5738</div></td></tr><tr><td><div>fe80::4c2:1e42:fd13:5738%15</div></td></tr><tr><td><div>fe80::244b:ba1:e8b9:363d%12</div></td></tr><tr><td><div>DataScienceVM</div></td></tr><tr><td><div>127.0.0.1</div></td></tr></table></div></td></tr><tr><td style="font-weight:bold;vertical-align:top;">web2py_version</td><td style="vertical-align:top;">:</td><td><div>2.13.4-stable+timestamp.2015.12.26.04.59.39</div></td></tr></table></div></td></tr><tr><td style="font-weight:bold;vertical-align:top;">is_https</td><td style="vertical-align:top;">:</td><td><div>False</div></td></tr><tr><td style="font-weight:bold;vertical-align:top;">is_local</td><td style="vertical-align:top;">:</td><td><div>True</div></td></tr><tr><td style="font-weight:bold;vertical-align:top;">is_restful</td><td style="vertical-align:top;">:</td><td><div>False</div></td></tr><tr><td style="font-weight:bold;vertical-align:top;">is_scheduler</td><td style="vertical-align:top;">:</td><td><div>False</div></td></tr><tr><td style="font-weight:bold;vertical-align:top;">is_shell</td><td style="vertical-align:top;">:</td><td><div>False</div></td></tr><tr><td style="font-weight:bold;vertical-align:top;">now</td><td style="vertical-align:top;">:</td><td><div>datetime.datetime(2016, 3, 20, 18, 58, 0, 888000)</div></td></tr><tr><td style="font-weight:bold;vertical-align:top;">url</td><td style="vertical-align:top;">:</td><td><div>/CUP</div></td></tr><tr><td style="font-weight:bold;vertical-align:top;">utcnow</td><td style="vertical-align:top;">:</td><td><div>datetime.datetime(2016, 3, 20, 17, 58, 0, 888000)</div></td></tr><tr><td style="font-weight:bold;vertical-align:top;">wsgi</td><td style="vertical-align:top;">:</td><td><div>&lt;gluon.main.LazyWSGI object at 0x0000000008D58828&gt;</div></td></tr></table></div>'
tRp58
sS'frames'
p59
(lp60
(dp61
S'file'
p62
S'C:\\Users\\Administrator.DATASCIENCEVM\\Dropbox\\______________myDevProjects\\myWebApps\\myWebApps\\web2py\\gluon\\restricted.py'
p63
sS'dump'
p64
(dp65
S'environment'
p66
S"{'A': <class 'gluon.html.A'>, 'ANY_OF': <class 'gluon.validators.ANY_OF'>, 'ASSIGNJS': <function ASSIGNJS>, 'Agente': <Table Agente (id,uuid,is_active,created_on,crea..._user,codice,nome,cap,via,id_Comune,descrizione)>, 'AppConfig': <function AppConfig>, 'Auth': <class 'gluon.tools.Auth'>, 'B': <class 'gluon.html.B'>, 'BEAUTIFY': <class 'gluon.html.BEAUTIFY'>, 'BODY': <class 'gluon.html.BODY'>, 'BR': <class 'gluon.html.BR'>, ...}"
p67
sS'ccode'
p68
S'<code object <module> at 0000000008D3A430, file ...s\\web2py\\applications\\CUP\\models\\db.py", line 13>'
p69
ssS'lnum'
p70
I227
sS'lines'
p71
(dp72
I224
S'            ccode = code'
p73
sI225
S'        else:'
p74
sI226
S'            ccode = compile2(code, layer)'
p75
sI227
S'        exec ccode in environment'
p76
sI228
S'    except HTTP:'
p77
sI229
S'        raise'
p78
sI230
S'    except RestrictedError:'
p79
sI231
S'        # do not encapsulate (obfuscate) the original RestrictedError'
p80
sI222
S'    try:'
p81
sI223
S'        if isinstance(code, types.CodeType):'
p82
ssS'call'
p83
S"(code='# -*- coding: utf-8 -*-\\n\\n#######################...able auditing\\n# auth.enable_record_versioning(db)', environment={'A': <class 'gluon.html.A'>, 'ANY_OF': <class 'gluon.validators.ANY_OF'>, 'ASSIGNJS': <function ASSIGNJS>, 'Agente': <Table Agente (id,uuid,is_active,created_on,crea..._user,codice,nome,cap,via,id_Comune,descrizione)>, 'AppConfig': <function AppConfig>, 'Auth': <class 'gluon.tools.Auth'>, 'B': <class 'gluon.html.B'>, 'BEAUTIFY': <class 'gluon.html.BEAUTIFY'>, 'BODY': <class 'gluon.html.BODY'>, 'BR': <class 'gluon.html.BR'>, ...}, layer=r'C:\\Users\\Administrator.DATASCIENCEVM\\Dropbox\\___...ps\\myWebApps\\web2py\\applications\\CUP\\models\\db.py')"
p84
sS'func'
p85
S'restricted'
p86
sa(dp87
g62
S'C:\\Users\\Administrator.DATASCIENCEVM\\Dropbox\\______________myDevProjects\\myWebApps\\myWebApps\\web2py\\applications\\CUP\\models\\db.py'
p88
sg64
(dp89
S'Agente'
p90
S'<Table Agente (id,uuid,is_active,created_on,crea..._user,codice,nome,cap,via,id_Comune,descrizione)>'
p91
ssg70
I140
sg71
(dp92
I135
S'    Field("descrizione", "text", default=valoreNonDefinito))'
p93
sI136
S"Agente.id_auth_user.requires=IS_IN_DB( db, 'auth_user.id', ' %(first_name)s %(last_name)s (%(email)s)')"
p94
sI137
S"#Agente.id_auth_user.requires=IS_IN_DB( db, 'comune.id', ' %(Denominazione in italiano)s %(auth_user.name)s')"
p95
sI138
S''
sI139
S'db.define_table("Cliente",'
p96
sI140
S'    Agente)'
p97
sI141
S'db.define_table("Fornitore",'
p98
sI142
S'    Agente)'
p99
sI143
S''
sI144
S'#il codice precedente \xc3\xa8 equivalente a'
p100
ssg83
S'()'
p101
sg85
S'<module>'
p102
sa(dp103
g62
S'C:\\Users\\Administrator.DATASCIENCEVM\\Dropbox\\______________myDevProjects\\myWebApps\\myWebApps\\web2py\\gluon\\packages\\dal\\pydal\\base.py'
p104
sg64
(dp105
S'fields'
p106
S'(<Table Agente (id,uuid,is_active,created_on,crea..._user,codice,nome,cap,via,id_Comune,descrizione)>,)'
p107
sS'self'
p108
S'<DAL uri="sqlite://storage.sqlite">'
p109
sS'args'
p110
g43
sS'tablename'
p111
S"'Cliente'"
p112
sS'table'
p113
S'undefined'
p114
sS'self.lazy_define_table'
p115
S'<bound method DAL.lazy_define_table of <DAL uri="sqlite://storage.sqlite">>'
p116
ssg70
I834
sg71
(dp117
I832
S'            table = None'
p118
sI833
S'        else:'
p119
sI834
S'            table = self.lazy_define_table(tablename,*fields,**args)'
p120
sI835
S'        if not tablename in self.tables:'
p121
sI836
S'            self.tables.append(tablename)'
p122
sI837
S'        return table'
p123
sI838
S''
sI829
S'                    % (tablename,invalid_args))'
p124
sI830
S'        if self._lazy_tables and tablename not in self._LAZY_TABLES:'
p125
sI831
S'            self._LAZY_TABLES[tablename] = (tablename,fields,args)'
p126
ssg83
S'(self=<DAL uri="sqlite://storage.sqlite">, tablename=\'Cliente\', *fields=(<Table Agente (id,uuid,is_active,created_on,crea..._user,codice,nome,cap,via,id_Comune,descrizione)>,), **args={})'
p127
sg85
S'define_table'
p128
sa(dp129
g62
S'C:\\Users\\Administrator.DATASCIENCEVM\\Dropbox\\______________myDevProjects\\myWebApps\\myWebApps\\web2py\\gluon\\packages\\dal\\pydal\\base.py'
p130
sg64
(dp131
S'polymodel'
p132
S'None'
p133
ssg70
I873
sg71
(dp134
I868
S'            try:'
p135
sI869
S'                GLOBAL_LOCKER.acquire()'
p136
sI870
S'                self._lastsql = self._adapter.create_table('
p137
sI871
S'                    table,migrate=migrate,'
p138
sI872
S'                    fake_migrate=fake_migrate,'
p139
sI873
S'                    polymodel=polymodel)'
p140
sI874
S'            finally:'
p141
sI875
S'                GLOBAL_LOCKER.release()'
p142
sI876
S'        else:'
p143
sI877
S'            table._dbt = None'
p144
ssg83
S'(self=<DAL uri="sqlite://storage.sqlite">, tablename=\'Cliente\', *fields=(<Table Agente (id,uuid,is_active,created_on,crea..._user,codice,nome,cap,via,id_Comune,descrizione)>,), **args={})'
p145
sg85
S'lazy_define_table'
p146
sa(dp147
g62
S'C:\\Users\\Administrator.DATASCIENCEVM\\Dropbox\\______________myDevProjects\\myWebApps\\myWebApps\\web2py\\gluon\\packages\\dal\\pydal\\adapters\\base.py'
p148
sg64
(dp149
S'table'
p150
S'<Table Cliente (id,uuid,is_active,created_on,cre..._user,codice,nome,cap,via,id_Comune,descrizione)>'
p151
sS'table._tablename'
p152
S"'Cliente'"
p153
sS'referenced'
p154
S"'Comune'"
p155
sS'builtinKeyError'
p156
S"<type 'exceptions.KeyError'>"
p157
ssg70
I297
sg71
(dp158
I292
S"                        rtablename,rfieldname = referenced.split('.')"
p159
sI293
S'                        rtable = db[rtablename]'
p160
sI294
S'                        rfield = rtable[rfieldname]'
p161
sI295
S'                    except Exception as e:'
p162
sI296
S"                        self.db.logger.debug('Error: %s' %e)"
p163
sI297
S"                        raise KeyError('Cannot resolve reference %s in %s definition' % (referenced, table._tablename))"
p164
sI298
S''
sI299
S'                # must be PK reference or unique'
p165
sI300
S"                if getattr(rtable, '_primarykey', None) and rfieldname in rtable._primarykey or \\"
p166
sI301
S'                        rfield.unique:'
p167
ssg83
S'(self=<pydal.adapters.sqlite.SQLiteAdapter object>, table=<Table Cliente (id,uuid,is_active,created_on,cre..._user,codice,nome,cap,via,id_Comune,descrizione)>, migrate=True, fake_migrate=False, polymodel=None)'
p168
sg85
S'create_table'
p169
sasS'pyver'
p170
S'Python 2.7.11: C:\\Python27\\python.exe (prefix: C:\\Python27)'
p171
sS'session'
p172
g57
(S'sT\x08\x00\x00<div><table><tr><td style="font-weight:bold;vertical-align:top;">auth</td><td style="vertical-align:top;">:</td><td><div><table><tr><td style="font-weight:bold;vertical-align:top;">expiration</td><td style="vertical-align:top;">:</td><td><div>3600</div></td></tr><tr><td style="font-weight:bold;vertical-align:top;">hmac_key</td><td style="vertical-align:top;">:</td><td><div>38c0e3f5-c56c-4fa3-b887-348dc200e705</div></td></tr><tr><td style="font-weight:bold;vertical-align:top;">last_visit</td><td style="vertical-align:top;">:</td><td><div>datetime.datetime(2016, 3, 20, 18, 54, 47, 271000)</div></td></tr><tr><td style="font-weight:bold;vertical-align:top;">user</td><td style="vertical-align:top;">:</td><td><div><table><tr><td style="font-weight:bold;vertical-align:top;">email</td><td style="vertical-align:top;">:</td><td><div>a@a.it</div></td></tr><tr><td style="font-weight:bold;vertical-align:top;">first_name</td><td style="vertical-align:top;">:</td><td><div>Luca</div></td></tr><tr><td style="font-weight:bold;vertical-align:top;">id</td><td style="vertical-align:top;">:</td><td><div>1L</div></td></tr><tr><td style="font-weight:bold;vertical-align:top;">last_name</td><td style="vertical-align:top;">:</td><td><div>Paulon</div></td></tr><tr><td style="font-weight:bold;vertical-align:top;">registration_id</td><td style="vertical-align:top;">:</td><td><div></div></td></tr><tr><td style="font-weight:bold;vertical-align:top;">registration_key</td><td style="vertical-align:top;">:</td><td><div></div></td></tr><tr><td style="font-weight:bold;vertical-align:top;">reset_password_key</td><td style="vertical-align:top;">:</td><td><div></div></td></tr></table></div></td></tr><tr><td style="font-weight:bold;vertical-align:top;">user_groups</td><td style="vertical-align:top;">:</td><td><div><table><tr><td style="font-weight:bold;vertical-align:top;">1</td><td style="vertical-align:top;">:</td><td><div>user_1</div></td></tr></table></div></td></tr></table></div></td></tr><tr><td style="font-weight:bold;vertical-align:top;">flash</td><td style="vertical-align:top;">:</td><td><div>None</div></td></tr></table></div>'
tRp173
sS'etype'
p174
S"<type 'exceptions.KeyError'>"
p175
sS'date'
p176
S'Sun Mar 20 18:58:01 2016'
p177
sS'response'
p178
g57
(S's\x90\x18\x00\x00<div><table><tr><td style="font-weight:bold;vertical-align:top;">body</td><td style="vertical-align:top;">:</td><td><div>&lt;cStringIO.StringO object at 0x0000000008D58768&gt;</div></td></tr><tr><td style="font-weight:bold;vertical-align:top;">cookies</td><td style="vertical-align:top;">:</td><td><div><table><tr><td style="font-weight:bold;vertical-align:top;">session_id_cup</td><td style="vertical-align:top;">:</td><td><div>127.0.0.1-b8143fa6-805b-4b44-bc8a-4cb49edf6853<table><tr><td style="font-weight:bold;vertical-align:top;">comment</td><td style="vertical-align:top;">:</td><td><div></div></td></tr><tr><td style="font-weight:bold;vertical-align:top;">domain</td><td style="vertical-align:top;">:</td><td><div></div></td></tr><tr><td style="font-weight:bold;vertical-align:top;">expires</td><td style="vertical-align:top;">:</td><td><div></div></td></tr><tr><td style="font-weight:bold;vertical-align:top;">httponly</td><td style="vertical-align:top;">:</td><td><div></div></td></tr><tr><td style="font-weight:bold;vertical-align:top;">max-age</td><td style="vertical-align:top;">:</td><td><div></div></td></tr><tr><td style="font-weight:bold;vertical-align:top;">path</td><td style="vertical-align:top;">:</td><td><div>/</div></td></tr><tr><td style="font-weight:bold;vertical-align:top;">secure</td><td style="vertical-align:top;">:</td><td><div></div></td></tr><tr><td style="font-weight:bold;vertical-align:top;">version</td><td style="vertical-align:top;">:</td><td><div></div></td></tr></table></div></td></tr></table></div></td></tr><tr><td style="font-weight:bold;vertical-align:top;">delimiters</td><td style="vertical-align:top;">:</td><td><div><table><tr><td><div>{{</div></td></tr><tr><td><div>}}</div></td></tr></table></div></td></tr><tr><td style="font-weight:bold;vertical-align:top;">files</td><td style="vertical-align:top;">:</td><td><div><table></table></div></td></tr><tr><td style="font-weight:bold;vertical-align:top;">flash</td><td style="vertical-align:top;">:</td><td><div></div></td></tr><tr><td style="font-weight:bold;vertical-align:top;">form_label_separator</td><td style="vertical-align:top;">:</td><td><div></div></td></tr><tr><td style="font-weight:bold;vertical-align:top;">formstyle</td><td style="vertical-align:top;">:</td><td><div>bootstrap3_inline</div></td></tr><tr><td style="font-weight:bold;vertical-align:top;">generic_patterns</td><td style="vertical-align:top;">:</td><td><div><table><tr><td><div>*</div></td></tr></table></div></td></tr><tr><td style="font-weight:bold;vertical-align:top;">headers</td><td style="vertical-align:top;">:</td><td><div><table><tr><td style="font-weight:bold;vertical-align:top;">X-Powered-By</td><td style="vertical-align:top;">:</td><td><div>web2py</div></td></tr></table></div></td></tr><tr><td style="font-weight:bold;vertical-align:top;">menu</td><td style="vertical-align:top;">:</td><td><div><table></table></div></td></tr><tr><td style="font-weight:bold;vertical-align:top;">meta</td><td style="vertical-align:top;">:</td><td><div><table></table></div></td></tr><tr><td style="font-weight:bold;vertical-align:top;">models_to_run</td><td style="vertical-align:top;">:</td><td><div><table><tr><td><div>^\\w+\\.py$</div></td></tr><tr><td><div>^default/\\w+\\.py$</div></td></tr><tr><td><div>^default/index/\\w+\\.py$</div></td></tr></table></div></td></tr><tr><td style="font-weight:bold;vertical-align:top;">postprocessing</td><td style="vertical-align:top;">:</td><td><div><table></table></div></td></tr><tr><td style="font-weight:bold;vertical-align:top;">session_client</td><td style="vertical-align:top;">:</td><td><div>127.0.0.1</div></td></tr><tr><td style="font-weight:bold;vertical-align:top;">session_cookie_compression_level</td><td style="vertical-align:top;">:</td><td><div>None</div></td></tr><tr><td style="font-weight:bold;vertical-align:top;">session_cookie_expires</td><td style="vertical-align:top;">:</td><td><div>None</div></td></tr><tr><td style="font-weight:bold;vertical-align:top;">session_cookie_key</td><td style="vertical-align:top;">:</td><td><div>None</div></td></tr><tr><td style="font-weight:bold;vertical-align:top;">session_data_name</td><td style="vertical-align:top;">:</td><td><div>session_data_cup</div></td></tr><tr><td style="font-weight:bold;vertical-align:top;">session_file</td><td style="vertical-align:top;">:</td><td><div>&lt;open file &#x27;C:\\\\Users\\\\Administrator.DATASCIENCEVM\\\\Dropbox\\\\______________myDevProjects\\\\myWebApps\\\\myWebApps\\\\web2py\\\\applications\\\\CUP\\\\sessions\\\\1f6\\\\111\\\\127.0.0.1-b8143fa6-805b-4b44-bc8a-4cb49edf6853&#x27;, mode &#x27;rb+&#x27; at 0x00000000087D2300&gt;</div></td></tr><tr><td style="font-weight:bold;vertical-align:top;">session_filename</td><td style="vertical-align:top;">:</td><td><div>C:\\Users\\Administrator.DATASCIENCEVM\\Dropbox\\______________myDevProjects\\myWebApps\\myWebApps\\web2py\\applications\\CUP\\sessions\\127.0.0.1-b8143fa6-805b-4b44-bc8a-4cb49edf6853</div></td></tr><tr><td style="font-weight:bold;vertical-align:top;">session_hash</td><td style="vertical-align:top;">:</td><td><div>44552af41f273d7b05bb7dc17512c3ac</div></td></tr><tr><td style="font-weight:bold;vertical-align:top;">session_id</td><td style="vertical-align:top;">:</td><td><div>127.0.0.1-b8143fa6-805b-4b44-bc8a-4cb49edf6853</div></td></tr><tr><td style="font-weight:bold;vertical-align:top;">session_id_name</td><td style="vertical-align:top;">:</td><td><div>session_id_cup</div></td></tr><tr><td style="font-weight:bold;vertical-align:top;">session_locked</td><td style="vertical-align:top;">:</td><td><div>True</div></td></tr><tr><td style="font-weight:bold;vertical-align:top;">session_masterapp</td><td style="vertical-align:top;">:</td><td><div>CUP</div></td></tr><tr><td style="font-weight:bold;vertical-align:top;">session_new</td><td style="vertical-align:top;">:</td><td><div>False</div></td></tr><tr><td style="font-weight:bold;vertical-align:top;">session_storage_type</td><td style="vertical-align:top;">:</td><td><div>file</div></td></tr><tr><td style="font-weight:bold;vertical-align:top;">status</td><td style="vertical-align:top;">:</td><td><div>200</div></td></tr><tr><td style="font-weight:bold;vertical-align:top;">view</td><td style="vertical-align:top;">:</td><td><div>default/index.html</div></td></tr></table></div>'
tRp179
sS'locals'
p180
(dp181
S'rtablename'
p182
S"'auth_user'"
p183
sS'referenced'
p184
S"'Comune'"
p185
sS'migrate'
p186
S'True'
p187
sS'constraint_name'
p188
S"'Cliente_id_Comune__constraint'"
p189
sS'table'
p190
S'<Table Cliente (id,uuid,is_active,created_on,cre..._user,codice,nome,cap,via,id_Comune,descrizione)>'
p191
sS'real_referenced'
p192
S"'auth_user'"
p193
sS'postcreation_fields'
p194
S'[]'
p195
sS'field_type'
p196
S"'reference Comune'"
p197
sS'self'
p198
S'<pydal.adapters.sqlite.SQLiteAdapter object>'
p199
sS'type_name'
p200
S"'reference'"
p201
sS'tablename'
p202
S"'Cliente'"
p203
sS'field'
p204
S'<pydal.objects.Field object>'
p205
sS'ftype'
p206
S"'CHAR(512)'"
p207
sS'rtable'
p208
S'<Table auth_user (id,first_name,last_name,email,...stration_key,reset_password_key,registration_id)>'
p209
sS'id_fieldname'
p210
S"'id'"
p211
sS'polymodel'
p212
S'None'
p213
sS'rfieldname'
p214
S"'id'"
p215
sS'ftype_info'
p216
S"{'constraint_name': 'Cliente_id_auth_user__constraint', 'field_name': 'id_auth_user', 'foreign_key': 'auth_user (id)', 'index_name': 'id_auth_user__idx', 'null': '', 'on_delete_action': 'CASCADE', 'unique': ''}"
p217
sS'db'
p218
S'<DAL uri="sqlite://storage.sqlite">'
p219
sS'fake_migrate'
p220
S'False'
p221
sS'sortable'
p222
S'13'
p223
sS'sql_fields'
p224
S"{'cap': {'length': 5, 'notnull': False, 'sortable': 11, 'sql': 'CHAR(5)', 'type': 'string', 'unique': False}, 'codice': {'length': 512, 'notnull': False, 'sortable': 9, 'sql': 'CHAR(512)', 'type': 'string', 'unique': False}, 'created_by': {'length': 512, 'notnull': False, 'sortable': 5, 'sql': 'INTEGER REFERENCES auth_user (id) ON DELETE CASCADE  ', 'type': 'reference auth_user', 'unique': False}, 'created_on': {'length': 512, 'notnull': False, 'sortable': 4, 'sql': 'TIMESTAMP', 'type': 'datetime', 'unique': False}, 'id': {'length': 512, 'notnull': False, 'sortable': 1, 'sql': 'INTEGER PRIMARY KEY AUTOINCREMENT', 'type': 'id', 'unique': False}, 'id_auth_user': {'length': 512, 'notnull': False, 'sortable': 8, 'sql': 'INTEGER REFERENCES auth_user (id) ON DELETE CASCADE  ', 'type': 'reference auth_user', 'unique': False}, 'is_active': {'length': 512, 'notnull': False, 'sortable': 3, 'sql': 'CHAR(1)', 'type': 'boolean', 'unique': False}, 'modified_by': {'length': 512, 'notnull': False, 'sortable': 7, 'sql': 'INTEGER REFERENCES auth_user (id) ON DELETE CASCADE  ', 'type': 'reference auth_user', 'unique': False}, 'modified_on': {'length': 512, 'notnull': False, 'sortable': 6, 'sql': 'TIMESTAMP', 'type': 'datetime', 'unique': False}, 'nome': {'length': 512, 'notnull': False, 'sortable': 10, 'sql': 'CHAR(512)', 'type': 'string', 'unique': False}, ...}"
p225
sS'field_name'
p226
S"'id_Comune'"
p227
sS'types'
p228
S"{'big-id': 'INTEGER PRIMARY KEY AUTOINCREMENT', 'big-reference': 'INTEGER REFERENCES %(foreign_key)s ON DELETE %(on_delete_action)s %(null)s %(unique)s', 'bigint': 'INTEGER', 'blob': 'BLOB', 'boolean': 'CHAR(1)', 'date': 'DATE', 'datetime': 'TIMESTAMP', 'decimal': 'DOUBLE', 'double': 'DOUBLE', 'float': 'DOUBLE', ...}"
p229
sS'e'
S"ValueError('need more than 1 value to unpack',)"
p230
sS'sql_fields_aux'
p231
S"{'cap': {'sql': 'CHAR(5)'}, 'codice': {'sql': 'CHAR(512)'}, 'created_by': {'sql': 'INTEGER REFERENCES auth_user (id) ON DELETE CASCADE  '}, 'created_on': {'sql': 'TIMESTAMP'}, 'id': {'sql': 'INTEGER PRIMARY KEY AUTOINCREMENT'}, 'id_auth_user': {'sql': 'INTEGER REFERENCES auth_user (id) ON DELETE CASCADE  '}, 'is_active': {'sql': 'CHAR(1)'}, 'modified_by': {'sql': 'INTEGER REFERENCES auth_user (id) ON DELETE CASCADE  '}, 'modified_on': {'sql': 'TIMESTAMP'}, 'nome': {'sql': 'CHAR(512)'}, ...}"
p232
sS'TFK'
p233
g43
sS'fields'
p234
S"['id INTEGER PRIMARY KEY AUTOINCREMENT', 'uuid CHAR(64)', 'is_active CHAR(1)', 'created_on TIMESTAMP', 'created_by INTEGER REFERENCES auth_user (id) ON DELETE CASCADE  ', 'modified_on TIMESTAMP', 'modified_by INTEGER REFERENCES auth_user (id) ON DELETE CASCADE  ', 'id_auth_user INTEGER REFERENCES auth_user (id) ON DELETE CASCADE  ', 'codice CHAR(512)', 'nome CHAR(512)', 'cap CHAR(5)', 'via CHAR(512)']"
p235
sS'rfield'
p236
S'<pydal.objects.Field object>'
p237
sssS'traceback'
p238
S'Traceback (most recent call last):\n  File "C:\\Users\\Administrator.DATASCIENCEVM\\Dropbox\\______________myDevProjects\\myWebApps\\myWebApps\\web2py\\gluon\\restricted.py", line 227, in restricted\n    exec ccode in environment\n  File "C:\\Users\\Administrator.DATASCIENCEVM\\Dropbox\\______________myDevProjects\\myWebApps\\myWebApps\\web2py\\applications\\CUP\\models\\db.py", line 140, in <module>\n    Agente)\n  File "C:\\Users\\Administrator.DATASCIENCEVM\\Dropbox\\______________myDevProjects\\myWebApps\\myWebApps\\web2py\\gluon\\packages\\dal\\pydal\\base.py", line 834, in define_table\n    table = self.lazy_define_table(tablename,*fields,**args)\n  File "C:\\Users\\Administrator.DATASCIENCEVM\\Dropbox\\______________myDevProjects\\myWebApps\\myWebApps\\web2py\\gluon\\packages\\dal\\pydal\\base.py", line 873, in lazy_define_table\n    polymodel=polymodel)\n  File "C:\\Users\\Administrator.DATASCIENCEVM\\Dropbox\\______________myDevProjects\\myWebApps\\myWebApps\\web2py\\gluon\\packages\\dal\\pydal\\adapters\\base.py", line 297, in create_table\n    raise KeyError(\'Cannot resolve reference %s in %s definition\' % (referenced, table._tablename))\nKeyError: \'Cannot resolve reference Comune in Cliente definition\'\n'
p239
s.